
kernel7.elf:     file format elf32-littlearm


Disassembly of section .text:

00008000 <__start>:
    8000:	e59ff018 	ldr	pc, [pc, #24]	@ 8020 <reset_addr>
    8004:	e59ff018 	ldr	pc, [pc, #24]	@ 8024 <undefined_instruction_addr>
    8008:	e59ff018 	ldr	pc, [pc, #24]	@ 8028 <software_interrupt_addr>
    800c:	e59ff018 	ldr	pc, [pc, #24]	@ 802c <prefetch_abort_addr>
    8010:	e59ff018 	ldr	pc, [pc, #24]	@ 8030 <data_abort_addr>
    8014:	e59ff018 	ldr	pc, [pc, #24]	@ 8034 <unused_handler_addr>
    8018:	e59ff018 	ldr	pc, [pc, #24]	@ 8038 <interrupt_addr>
    801c:	e59ff018 	ldr	pc, [pc, #24]	@ 803c <fast_interrupt_addr>

00008020 <reset_addr>:
    8020:	00008040 	andeq	r8, r0, r0, asr #32

00008024 <undefined_instruction_addr>:
    8024:	0000967c 	andeq	r9, r0, ip, ror r6

00008028 <software_interrupt_addr>:
    8028:	000097f4 	strdeq	r9, [r0], -r4

0000802c <prefetch_abort_addr>:
    802c:	0000960c 	andeq	r9, r0, ip, lsl #12

00008030 <data_abort_addr>:
    8030:	00009584 	andeq	r9, r0, r4, lsl #11

00008034 <unused_handler_addr>:
    8034:	0000967c 	andeq	r9, r0, ip, ror r6

00008038 <interrupt_addr>:
    8038:	00009698 	muleq	r0, r8, r6

0000803c <fast_interrupt_addr>:
    803c:	0000956c 	andeq	r9, r0, ip, ror #10

00008040 <reset>:
    8040:	ee103fb0 	mrc	15, 0, r3, cr0, cr0, {5}
    8044:	e2133003 	ands	r3, r3, #3
    8048:	1a00002d 	bne	8104 <wait_forever>
    804c:	f10c00c0 	cpsid	if
    8050:	e10f3000 	mrs	r3, CPSR
    8054:	e203401f 	and	r4, r3, #31
    8058:	e354001a 	cmp	r4, #26
    805c:	1a000006 	bne	807c <done_hyp>
    8060:	e3c3301f 	bic	r3, r3, #31
    8064:	e38330d3 	orr	r3, r3, #211	@ 0xd3
    8068:	e3833c01 	orr	r3, r3, #256	@ 0x100
    806c:	e28fe010 	add	lr, pc, #16
    8070:	e16ff003 	msr	SPSR_fsxc, r3
    8074:	e12ef30e 	msr	ELR_hyp, lr
    8078:	e160006e 	eret

0000807c <done_hyp>:
    807c:	e38330d3 	orr	r3, r3, #211	@ 0xd3
    8080:	e121f003 	msr	CPSR_c, r3

00008084 <done_pi2>:
    8084:	e3a0d902 	mov	sp, #32768	@ 0x8000
    8088:	e3a030d2 	mov	r3, #210	@ 0xd2
    808c:	e121f003 	msr	CPSR_c, r3
    8090:	e3a0d901 	mov	sp, #16384	@ 0x4000
    8094:	e3a030d3 	mov	r3, #211	@ 0xd3
    8098:	e121f003 	msr	CPSR_c, r3
    809c:	e3a030db 	mov	r3, #219	@ 0xdb
    80a0:	e121f003 	msr	CPSR_c, r3
    80a4:	e3a0da02 	mov	sp, #8192	@ 0x2000
    80a8:	e3a030d3 	mov	r3, #211	@ 0xd3
    80ac:	e121f003 	msr	CPSR_c, r3
    80b0:	e3a030d7 	mov	r3, #215	@ 0xd7
    80b4:	e121f003 	msr	CPSR_c, r3
    80b8:	e3a0da02 	mov	sp, #8192	@ 0x2000
    80bc:	e3a030d3 	mov	r3, #211	@ 0xd3
    80c0:	e121f003 	msr	CPSR_c, r3
    80c4:	e59f3040 	ldr	r3, [pc, #64]	@ 810c <wait_forever+0x8>
    80c8:	e3a04000 	mov	r4, #0
    80cc:	e8b31fe0 	ldm	r3!, {r5, r6, r7, r8, r9, sl, fp, ip}
    80d0:	e8a41fe0 	stmia	r4!, {r5, r6, r7, r8, r9, sl, fp, ip}
    80d4:	e8b31fe0 	ldm	r3!, {r5, r6, r7, r8, r9, sl, fp, ip}
    80d8:	e8a41fe0 	stmia	r4!, {r5, r6, r7, r8, r9, sl, fp, ip}
    80dc:	e59f402c 	ldr	r4, [pc, #44]	@ 8110 <wait_forever+0xc>
    80e0:	e59f902c 	ldr	r9, [pc, #44]	@ 8114 <wait_forever+0x10>
    80e4:	e3a05000 	mov	r5, #0

000080e8 <clear_bss>:
    80e8:	e5845000 	str	r5, [r4]
    80ec:	e2844004 	add	r4, r4, #4
    80f0:	e1540009 	cmp	r4, r9
    80f4:	dafffffb 	ble	80e8 <clear_bss>
    80f8:	e59f3014 	ldr	r3, [pc, #20]	@ 8114 <wait_forever+0x10>
    80fc:	e59f4014 	ldr	r4, [pc, #20]	@ 8118 <wait_forever+0x14>
    8100:	e12fff34 	blx	r4

00008104 <wait_forever>:
    8104:	e320f002 	wfe
    8108:	eafffffd 	b	8104 <wait_forever>
    810c:	00008000 	andeq	r8, r0, r0
    8110:	00033000 	andeq	r3, r3, r0
    8114:	00c66000 	sbceq	r6, r6, r0
    8118:	000081e8 	andeq	r8, r0, r8, ror #3

0000811c <print_boot_message>:
    811c:	e92d4070 	push	{r4, r5, r6, lr}
    8120:	e59f5084 	ldr	r5, [pc, #132]	@ 81ac <print_boot_message+0x90>
    8124:	e59f4084 	ldr	r4, [pc, #132]	@ 81b0 <print_boot_message+0x94>
    8128:	e1a00005 	mov	r0, r5
    812c:	eb0018d5 	bl	e488 <printk>
    8130:	e59f007c 	ldr	r0, [pc, #124]	@ 81b4 <print_boot_message+0x98>
    8134:	eb0018d3 	bl	e488 <printk>
    8138:	e1a00005 	mov	r0, r5
    813c:	eb0018d1 	bl	e488 <printk>
    8140:	e59f1070 	ldr	r1, [pc, #112]	@ 81b8 <print_boot_message+0x9c>
    8144:	e1a00004 	mov	r0, r4
    8148:	eb0018ce 	bl	e488 <printk>
    814c:	e59f0068 	ldr	r0, [pc, #104]	@ 81bc <print_boot_message+0xa0>
    8150:	eb0018cc 	bl	e488 <printk>
    8154:	e59f0064 	ldr	r0, [pc, #100]	@ 81c0 <print_boot_message+0xa4>
    8158:	eb0018ca 	bl	e488 <printk>
    815c:	e59f0060 	ldr	r0, [pc, #96]	@ 81c4 <print_boot_message+0xa8>
    8160:	eb0018c8 	bl	e488 <printk>
    8164:	e59f005c 	ldr	r0, [pc, #92]	@ 81c8 <print_boot_message+0xac>
    8168:	eb0018c6 	bl	e488 <printk>
    816c:	e59f0058 	ldr	r0, [pc, #88]	@ 81cc <print_boot_message+0xb0>
    8170:	eb0018c4 	bl	e488 <printk>
    8174:	e59f0054 	ldr	r0, [pc, #84]	@ 81d0 <print_boot_message+0xb4>
    8178:	eb0018c2 	bl	e488 <printk>
    817c:	e59f0050 	ldr	r0, [pc, #80]	@ 81d4 <print_boot_message+0xb8>
    8180:	eb0018c0 	bl	e488 <printk>
    8184:	e59f004c 	ldr	r0, [pc, #76]	@ 81d8 <print_boot_message+0xbc>
    8188:	eb0018be 	bl	e488 <printk>
    818c:	e59f0048 	ldr	r0, [pc, #72]	@ 81dc <print_boot_message+0xc0>
    8190:	eb0018bc 	bl	e488 <printk>
    8194:	e1a00004 	mov	r0, r4
    8198:	e59f1040 	ldr	r1, [pc, #64]	@ 81e0 <print_boot_message+0xc4>
    819c:	eb0018b9 	bl	e488 <printk>
    81a0:	e8bd4070 	pop	{r4, r5, r6, lr}
    81a4:	e59f0038 	ldr	r0, [pc, #56]	@ 81e4 <print_boot_message+0xc8>
    81a8:	ea0018b6 	b	e488 <printk>
    81ac:	0000f040 	andeq	pc, r0, r0, asr #32
    81b0:	0000f070 	andeq	pc, r0, r0, ror r0	@ <UNPREDICTABLE>
    81b4:	0000f048 	andeq	pc, r0, r8, asr #32
    81b8:	0000f068 	andeq	pc, r0, r8, rrx
    81bc:	0000f074 	andeq	pc, r0, r4, ror r0	@ <UNPREDICTABLE>
    81c0:	0000f08c 	andeq	pc, r0, ip, lsl #1
    81c4:	0000f0a4 	andeq	pc, r0, r4, lsr #1
    81c8:	0000f0bc 	strheq	pc, [r0], -ip	@ <UNPREDICTABLE>
    81cc:	0000f0d4 	ldrdeq	pc, [r0], -r4
    81d0:	0000f0ec 	andeq	pc, r0, ip, ror #1
    81d4:	0000f104 	andeq	pc, r0, r4, lsl #2
    81d8:	0000f10c 	andeq	pc, r0, ip, lsl #2
    81dc:	0000f114 	andeq	pc, r0, r4, lsl r1	@ <UNPREDICTABLE>
    81e0:	0000f138 	andeq	pc, r0, r8, lsr r1	@ <UNPREDICTABLE>
    81e4:	0000f140 	andeq	pc, r0, r0, asr #2

000081e8 <kernel_main>:
    81e8:	e92d40f0 	push	{r4, r5, r6, r7, lr}
    81ec:	e1a04001 	mov	r4, r1
    81f0:	e1a06002 	mov	r6, r2
    81f4:	e1a07000 	mov	r7, r0
    81f8:	e1a05003 	mov	r5, r3
    81fc:	e24dd00c 	sub	sp, sp, #12
    8200:	e1a00002 	mov	r0, r2
    8204:	eb000039 	bl	82f0 <hardware_detect>
    8208:	eb0001a2 	bl	8898 <hardware_setup_vars>
    820c:	e3a00001 	mov	r0, #1
    8210:	eb000e8a 	bl	bc40 <serial_init>
    8214:	e59f00a4 	ldr	r0, [pc, #164]	@ 82c0 <kernel_main+0xd8>
    8218:	eb0018ab 	bl	e4cc <serial_printk>
    821c:	e1a03006 	mov	r3, r6
    8220:	e1a02004 	mov	r2, r4
    8224:	e1a01007 	mov	r1, r7
    8228:	e59f0094 	ldr	r0, [pc, #148]	@ 82c4 <kernel_main+0xdc>
    822c:	eb001895 	bl	e488 <printk>
    8230:	e59f0090 	ldr	r0, [pc, #144]	@ 82c8 <kernel_main+0xe0>
    8234:	eb001893 	bl	e488 <printk>
    8238:	e59f108c 	ldr	r1, [pc, #140]	@ 82cc <kernel_main+0xe4>
    823c:	e59f008c 	ldr	r0, [pc, #140]	@ 82d0 <kernel_main+0xe8>
    8240:	eb001890 	bl	e488 <printk>
    8244:	e1a00004 	mov	r0, r4
    8248:	eb0000e5 	bl	85e4 <hardware_print_model>
    824c:	eb000164 	bl	87e4 <hardware_print_commandline>
    8250:	eb000445 	bl	936c <platform_irq_enable>
    8254:	eb0009cf 	bl	a998 <drivers_init_all>
    8258:	e1a02a25 	lsr	r2, r5, #20
    825c:	e1a02a02 	lsl	r2, r2, #20
    8260:	e2824601 	add	r4, r2, #1048576	@ 0x100000
    8264:	e1a02004 	mov	r2, r4
    8268:	e1a01005 	mov	r1, r5
    826c:	e59f0060 	ldr	r0, [pc, #96]	@ 82d4 <kernel_main+0xec>
    8270:	eb001884 	bl	e488 <printk>
    8274:	e1a00004 	mov	r0, r4
    8278:	eb00125d 	bl	cbf4 <memory_hierarchy_init>
    827c:	eb0007df 	bl	a200 <fd_table_init>
    8280:	e3a01802 	mov	r1, #131072	@ 0x20000
    8284:	e59f004c 	ldr	r0, [pc, #76]	@ 82d8 <kernel_main+0xf0>
    8288:	eb0009ee 	bl	aa48 <ramdisk_init>
    828c:	e3a03000 	mov	r3, #0
    8290:	e59f2044 	ldr	r2, [pc, #68]	@ 82dc <kernel_main+0xf4>
    8294:	e59f1044 	ldr	r1, [pc, #68]	@ 82e0 <kernel_main+0xf8>
    8298:	e58d3000 	str	r3, [sp]
    829c:	e59f0040 	ldr	r0, [pc, #64]	@ 82e4 <kernel_main+0xfc>
    82a0:	eb0007c4 	bl	a1b8 <mount>
    82a4:	eb001544 	bl	d7bc <create_idle_task>
    82a8:	ebffff9b 	bl	811c <print_boot_message>
    82ac:	e59f0034 	ldr	r0, [pc, #52]	@ 82e8 <kernel_main+0x100>
    82b0:	eb0015a9 	bl	d95c <start_userspace>
    82b4:	e59f0030 	ldr	r0, [pc, #48]	@ 82ec <kernel_main+0x104>
    82b8:	eb001872 	bl	e488 <printk>
    82bc:	eafffffe 	b	82bc <kernel_main+0xd4>
    82c0:	0000f148 	andeq	pc, r0, r8, asr #2
    82c4:	0000f160 	andeq	pc, r0, r0, ror #2
    82c8:	0000f184 	andeq	pc, r0, r4, lsl #3
    82cc:	0000f190 	muleq	r0, r0, r1
    82d0:	0000f194 	muleq	r0, r4, r1
    82d4:	0000f1a4 	andeq	pc, r0, r4, lsr #3
    82d8:	00011000 	andeq	r1, r1, r0
    82dc:	0000f1e0 	andeq	pc, r0, r0, ror #3
    82e0:	0000f1e8 	andeq	pc, r0, r8, ror #3
    82e4:	0000f1ec 	andeq	pc, r0, ip, ror #3
    82e8:	0000f1fc 	strdeq	pc, [r0], -ip
    82ec:	0000f208 	andeq	pc, r0, r8, lsl #4

000082f0 <hardware_detect>:
    82f0:	e92d4070 	push	{r4, r5, r6, lr}
    82f4:	eb000274 	bl	8ccc <devicetree_setup>
    82f8:	e3500000 	cmp	r0, #0
    82fc:	0a000001 	beq	8308 <hardware_detect+0x18>
    8300:	e3a00000 	mov	r0, #0
    8304:	e8bd8070 	pop	{r4, r5, r6, pc}
    8308:	e3045000 	movw	r5, #16384	@ 0x4000
    830c:	e3a04001 	mov	r4, #1
    8310:	e3405003 	movt	r5, #3
    8314:	e30f1220 	movw	r1, #61984	@ 0xf220
    8318:	e3401000 	movt	r1, #0
    831c:	e1a02005 	mov	r2, r5
    8320:	e30f0230 	movw	r0, #62000	@ 0xf230
    8324:	e4824004 	str	r4, [r2], #4
    8328:	e3400000 	movt	r0, #0
    832c:	eb000305 	bl	8f48 <devicetree_find_int>
    8330:	e5952004 	ldr	r2, [r5, #4]
    8334:	e30230e0 	movw	r3, #8416	@ 0x20e0
    8338:	e3403090 	movt	r3, #144	@ 0x90
    833c:	e1520003 	cmp	r2, r3
    8340:	0a0000a5 	beq	85dc <hardware_detect+0x2ec>
    8344:	9a00001d 	bls	83c0 <hardware_detect+0xd0>
    8348:	e30230d3 	movw	r3, #8403	@ 0x20d3
    834c:	e34030a0 	movt	r3, #160	@ 0xa0
    8350:	e1520003 	cmp	r2, r3
    8354:	0a00009e 	beq	85d4 <hardware_detect+0x2e4>
    8358:	9a000041 	bls	8464 <hardware_detect+0x174>
    835c:	e3023042 	movw	r3, #8258	@ 0x2042
    8360:	e34030a2 	movt	r3, #162	@ 0xa2
    8364:	e1520003 	cmp	r2, r3
    8368:	03a0300b 	moveq	r3, #11
    836c:	0a00000e 	beq	83ac <hardware_detect+0xbc>
    8370:	9a00008b 	bls	85a4 <hardware_detect+0x2b4>
    8374:	e3033112 	movw	r3, #12562	@ 0x3112
    8378:	e34030b0 	movt	r3, #176	@ 0xb0
    837c:	e1520003 	cmp	r2, r3
    8380:	8a00001d 	bhi	83fc <hardware_detect+0x10c>
    8384:	e3033110 	movw	r3, #12560	@ 0x3110
    8388:	e34030b0 	movt	r3, #176	@ 0xb0
    838c:	e1520003 	cmp	r2, r3
    8390:	8a00008d 	bhi	85cc <hardware_detect+0x2dc>
    8394:	e3c23801 	bic	r3, r2, #65536	@ 0x10000
    8398:	e3022082 	movw	r2, #8322	@ 0x2082
    839c:	e34020a2 	movt	r2, #162	@ 0xa2
    83a0:	e1530002 	cmp	r3, r2
    83a4:	03a03009 	moveq	r3, #9
    83a8:	13a03000 	movne	r3, #0
    83ac:	e3012000 	movw	r2, #4096	@ 0x1000
    83b0:	e3a00000 	mov	r0, #0
    83b4:	e3402003 	movt	r2, #3
    83b8:	e5823000 	str	r3, [r2]
    83bc:	e8bd8070 	pop	{r4, r5, r6, pc}
    83c0:	e3520015 	cmp	r2, #21
    83c4:	8a00005a 	bhi	8534 <hardware_detect+0x244>
    83c8:	e352000f 	cmp	r2, #15
    83cc:	8a00004d 	bhi	8508 <hardware_detect+0x218>
    83d0:	e3520009 	cmp	r2, #9
    83d4:	8a000045 	bhi	84f0 <hardware_detect+0x200>
    83d8:	e3520006 	cmp	r2, #6
    83dc:	81a03004 	movhi	r3, r4
    83e0:	8afffff1 	bhi	83ac <hardware_detect+0xbc>
    83e4:	e2423002 	sub	r3, r2, #2
    83e8:	e3530004 	cmp	r3, #4
    83ec:	83a03000 	movhi	r3, #0
    83f0:	93a03001 	movls	r3, #1
    83f4:	e1a03413 	lsl	r3, r3, r4
    83f8:	eaffffeb 	b	83ac <hardware_detect+0xbc>
    83fc:	e3033115 	movw	r3, #12565	@ 0x3115
    8400:	e34030c0 	movt	r3, #192	@ 0xc0
    8404:	e1520003 	cmp	r2, r3
    8408:	8a000035 	bhi	84e4 <hardware_detect+0x1f4>
    840c:	e3033113 	movw	r3, #12563	@ 0x3113
    8410:	e34030c0 	movt	r3, #192	@ 0xc0
    8414:	e1520003 	cmp	r2, r3
    8418:	8a00006b 	bhi	85cc <hardware_detect+0x2dc>
    841c:	e3033115 	movw	r3, #12565	@ 0x3115
    8420:	e34030b0 	movt	r3, #176	@ 0xb0
    8424:	e1520003 	cmp	r2, r3
    8428:	9a000007 	bls	844c <hardware_detect+0x15c>
    842c:	e30c3eef 	movw	r3, #52975	@ 0xceef
    8430:	e34f3f3f 	movt	r3, #65343	@ 0xff3f
    8434:	e0823003 	add	r3, r2, r3
    8438:	e3530001 	cmp	r3, #1
    843c:	83a03000 	movhi	r3, #0
    8440:	93a03001 	movls	r3, #1
    8444:	e1a03203 	lsl	r3, r3, #4
    8448:	eaffffd7 	b	83ac <hardware_detect+0xbc>
    844c:	e3033113 	movw	r3, #12563	@ 0x3113
    8450:	e34030b0 	movt	r3, #176	@ 0xb0
    8454:	e0523003 	subs	r3, r2, r3
    8458:	13a03001 	movne	r3, #1
    845c:	e1a03203 	lsl	r3, r3, #4
    8460:	eaffffd1 	b	83ac <hardware_detect+0xbc>
    8464:	e3013041 	movw	r3, #4161	@ 0x1041
    8468:	e34030a0 	movt	r3, #160	@ 0xa0
    846c:	e1520003 	cmp	r2, r3
    8470:	8a000010 	bhi	84b8 <hardware_detect+0x1c8>
    8474:	e3a03d41 	mov	r3, #4160	@ 0x1040
    8478:	e34030a0 	movt	r3, #160	@ 0xa0
    847c:	e1520003 	cmp	r2, r3
    8480:	23a03007 	movcs	r3, #7
    8484:	2affffc8 	bcs	83ac <hardware_detect+0xbc>
    8488:	e3023120 	movw	r3, #8480	@ 0x2120
    848c:	e3403090 	movt	r3, #144	@ 0x90
    8490:	e1520003 	cmp	r2, r3
    8494:	03a0300e 	moveq	r3, #14
    8498:	0affffc3 	beq	83ac <hardware_detect+0xbc>
    849c:	e3a03093 	mov	r3, #147	@ 0x93
    84a0:	e3403092 	movt	r3, #146	@ 0x92
    84a4:	e0423003 	sub	r3, r2, r3
    84a8:	e16f3f13 	clz	r3, r3
    84ac:	e1a032a3 	lsr	r3, r3, #5
    84b0:	e1a03183 	lsl	r3, r3, #3
    84b4:	eaffffbc 	b	83ac <hardware_detect+0xbc>
    84b8:	e3023082 	movw	r3, #8322	@ 0x2082
    84bc:	e34030a0 	movt	r3, #160	@ 0xa0
    84c0:	e1520003 	cmp	r2, r3
    84c4:	03a03009 	moveq	r3, #9
    84c8:	0affffb7 	beq	83ac <hardware_detect+0xbc>
    84cc:	e30230a0 	movw	r3, #8352	@ 0x20a0
    84d0:	e34030a0 	movt	r3, #160	@ 0xa0
    84d4:	e1520003 	cmp	r2, r3
    84d8:	03a0300c 	moveq	r3, #12
    84dc:	13a03000 	movne	r3, #0
    84e0:	eaffffb1 	b	83ac <hardware_detect+0xbc>
    84e4:	e30c3eec 	movw	r3, #52972	@ 0xceec
    84e8:	e34f3f2f 	movt	r3, #65327	@ 0xff2f
    84ec:	eaffffd0 	b	8434 <hardware_detect+0x144>
    84f0:	e242300d 	sub	r3, r2, #13
    84f4:	e3530002 	cmp	r3, #2
    84f8:	83a03000 	movhi	r3, #0
    84fc:	93a03001 	movls	r3, #1
    8500:	e1a03083 	lsl	r3, r3, #1
    8504:	eaffffa8 	b	83ac <hardware_detect+0xbc>
    8508:	e1a03214 	lsl	r3, r4, r2
    850c:	e3130709 	tst	r3, #2359296	@ 0x240000
    8510:	1a000021 	bne	859c <hardware_detect+0x2ac>
    8514:	e3130812 	tst	r3, #1179648	@ 0x120000
    8518:	13a03006 	movne	r3, #6
    851c:	1affffa2 	bne	83ac <hardware_detect+0xbc>
    8520:	e3130809 	tst	r3, #589824	@ 0x90000
    8524:	13a03001 	movne	r3, #1
    8528:	03a03000 	moveq	r3, #0
    852c:	e1a03103 	lsl	r3, r3, #2
    8530:	eaffff9d 	b	83ac <hardware_detect+0xbc>
    8534:	e3a03093 	mov	r3, #147	@ 0x93
    8538:	e3403090 	movt	r3, #144	@ 0x90
    853c:	e1520003 	cmp	r2, r3
    8540:	8a00000f 	bhi	8584 <hardware_detect+0x294>
    8544:	e3a03091 	mov	r3, #145	@ 0x91
    8548:	e3403090 	movt	r3, #144	@ 0x90
    854c:	e1520003 	cmp	r2, r3
    8550:	83a03008 	movhi	r3, #8
    8554:	8affff94 	bhi	83ac <hardware_detect+0xbc>
    8558:	e3a03021 	mov	r3, #33	@ 0x21
    855c:	e3403090 	movt	r3, #144	@ 0x90
    8560:	e1520003 	cmp	r2, r3
    8564:	0a00000c 	beq	859c <hardware_detect+0x2ac>
    8568:	e3a03032 	mov	r3, #50	@ 0x32
    856c:	e3403090 	movt	r3, #144	@ 0x90
    8570:	e0423003 	sub	r3, r2, r3
    8574:	e16f3f13 	clz	r3, r3
    8578:	e1a032a3 	lsr	r3, r3, #5
    857c:	e1a03103 	lsl	r3, r3, #2
    8580:	eaffff89 	b	83ac <hardware_detect+0xbc>
    8584:	e3a030c1 	mov	r3, #193	@ 0xc1
    8588:	e3403090 	movt	r3, #144	@ 0x90
    858c:	e1520003 	cmp	r2, r3
    8590:	03a0300d 	moveq	r3, #13
    8594:	13a03000 	movne	r3, #0
    8598:	eaffff83 	b	83ac <hardware_detect+0xbc>
    859c:	e3a03003 	mov	r3, #3
    85a0:	eaffff81 	b	83ac <hardware_detect+0xbc>
    85a4:	e3033111 	movw	r3, #12561	@ 0x3111
    85a8:	e34030a0 	movt	r3, #160	@ 0xa0
    85ac:	e1520003 	cmp	r2, r3
    85b0:	0a000005 	beq	85cc <hardware_detect+0x2dc>
    85b4:	e3013041 	movw	r3, #4161	@ 0x1041
    85b8:	e34030a2 	movt	r3, #162	@ 0xa2
    85bc:	e1520003 	cmp	r2, r3
    85c0:	03a03007 	moveq	r3, #7
    85c4:	13a03000 	movne	r3, #0
    85c8:	eaffff77 	b	83ac <hardware_detect+0xbc>
    85cc:	e3a03010 	mov	r3, #16
    85d0:	eaffff75 	b	83ac <hardware_detect+0xbc>
    85d4:	e3a0300a 	mov	r3, #10
    85d8:	eaffff73 	b	83ac <hardware_detect+0xbc>
    85dc:	e3a0300f 	mov	r3, #15
    85e0:	eaffff71 	b	83ac <hardware_detect+0xbc>

000085e4 <hardware_print_model>:
    85e4:	e92d4010 	push	{r4, lr}
    85e8:	e1a04000 	mov	r4, r0
    85ec:	e30f0238 	movw	r0, #62008	@ 0xf238
    85f0:	e1a01004 	mov	r1, r4
    85f4:	e3400000 	movt	r0, #0
    85f8:	e24dd080 	sub	sp, sp, #128	@ 0x80
    85fc:	eb0017a1 	bl	e488 <printk>
    8600:	e3003c42 	movw	r3, #3138	@ 0xc42
    8604:	e1540003 	cmp	r4, r3
    8608:	e3044000 	movw	r4, #16384	@ 0x4000
    860c:	e3404003 	movt	r4, #3
    8610:	030f0250 	movweq	r0, #62032	@ 0xf250
    8614:	03400000 	movteq	r0, #0
    8618:	130f0260 	movwne	r0, #62048	@ 0xf260
    861c:	13400000 	movtne	r0, #0
    8620:	eb001798 	bl	e488 <printk>
    8624:	e30f0088 	movw	r0, #61576	@ 0xf088
    8628:	e3400000 	movt	r0, #0
    862c:	eb001795 	bl	e488 <printk>
    8630:	e5943000 	ldr	r3, [r4]
    8634:	e3530000 	cmp	r3, #0
    8638:	1a000019 	bne	86a4 <hardware_print_model+0xc0>
    863c:	e30f0298 	movw	r0, #62104	@ 0xf298
    8640:	e3400000 	movt	r0, #0
    8644:	eb00178f 	bl	e488 <printk>
    8648:	e3013000 	movw	r3, #4096	@ 0x1000
    864c:	e3403003 	movt	r3, #3
    8650:	e5933000 	ldr	r3, [r3]
    8654:	e2433001 	sub	r3, r3, #1
    8658:	e353000f 	cmp	r3, #15
    865c:	979ff103 	ldrls	pc, [pc, r3, lsl #2]
    8660:	ea00005a 	b	87d0 <hardware_print_model+0x1ec>
    8664:	000086f0 	strdeq	r8, [r0], -r0
    8668:	00008700 	andeq	r8, r0, r0, lsl #14
    866c:	00008710 	andeq	r8, r0, r0, lsl r7
    8670:	00008720 	andeq	r8, r0, r0, lsr #14
    8674:	000087d0 	ldrdeq	r8, [r0], -r0
    8678:	00008730 	andeq	r8, r0, r0, lsr r7
    867c:	00008740 	andeq	r8, r0, r0, asr #14
    8680:	00008750 	andeq	r8, r0, r0, asr r7
    8684:	00008760 	andeq	r8, r0, r0, ror #14
    8688:	00008770 	andeq	r8, r0, r0, ror r7
    868c:	00008780 	andeq	r8, r0, r0, lsl #15
    8690:	00008790 	muleq	r0, r0, r7
    8694:	000087a0 	andeq	r8, r0, r0, lsr #15
    8698:	000087b0 			@ <UNDEFINED> instruction: 0x000087b0
    869c:	000087c0 	andeq	r8, r0, r0, asr #15
    86a0:	000086d0 	ldrdeq	r8, [r0], -r0
    86a4:	e30f1274 	movw	r1, #62068	@ 0xf274
    86a8:	e3a03080 	mov	r3, #128	@ 0x80
    86ac:	e3401000 	movt	r1, #0
    86b0:	e1a0200d 	mov	r2, sp
    86b4:	e3a00000 	mov	r0, #0
    86b8:	eb000208 	bl	8ee0 <devicetree_find_string>
    86bc:	e30f027c 	movw	r0, #62076	@ 0xf27c
    86c0:	e1a0100d 	mov	r1, sp
    86c4:	e3400000 	movt	r0, #0
    86c8:	eb00176e 	bl	e488 <printk>
    86cc:	eaffffda 	b	863c <hardware_print_model+0x58>
    86d0:	e30f0318 	movw	r0, #62232	@ 0xf318
    86d4:	e3400000 	movt	r0, #0
    86d8:	eb00176a 	bl	e488 <printk>
    86dc:	e30f0088 	movw	r0, #61576	@ 0xf088
    86e0:	e3400000 	movt	r0, #0
    86e4:	eb001767 	bl	e488 <printk>
    86e8:	e28dd080 	add	sp, sp, #128	@ 0x80
    86ec:	e8bd8010 	pop	{r4, pc}
    86f0:	e30f02b0 	movw	r0, #62128	@ 0xf2b0
    86f4:	e3400000 	movt	r0, #0
    86f8:	eb001762 	bl	e488 <printk>
    86fc:	eafffff6 	b	86dc <hardware_print_model+0xf8>
    8700:	e30f02b8 	movw	r0, #62136	@ 0xf2b8
    8704:	e3400000 	movt	r0, #0
    8708:	eb00175e 	bl	e488 <printk>
    870c:	eafffff2 	b	86dc <hardware_print_model+0xf8>
    8710:	e30f02b4 	movw	r0, #62132	@ 0xf2b4
    8714:	e3400000 	movt	r0, #0
    8718:	eb00175a 	bl	e488 <printk>
    871c:	eaffffee 	b	86dc <hardware_print_model+0xf8>
    8720:	e30f02bc 	movw	r0, #62140	@ 0xf2bc
    8724:	e3400000 	movt	r0, #0
    8728:	eb001756 	bl	e488 <printk>
    872c:	eaffffea 	b	86dc <hardware_print_model+0xf8>
    8730:	e30f02f0 	movw	r0, #62192	@ 0xf2f0
    8734:	e3400000 	movt	r0, #0
    8738:	eb001752 	bl	e488 <printk>
    873c:	eaffffe6 	b	86dc <hardware_print_model+0xf8>
    8740:	e30f02c0 	movw	r0, #62144	@ 0xf2c0
    8744:	e3400000 	movt	r0, #0
    8748:	eb00174e 	bl	e488 <printk>
    874c:	eaffffe2 	b	86dc <hardware_print_model+0xf8>
    8750:	e30f02d8 	movw	r0, #62168	@ 0xf2d8
    8754:	e3400000 	movt	r0, #0
    8758:	eb00174a 	bl	e488 <printk>
    875c:	eaffffde 	b	86dc <hardware_print_model+0xf8>
    8760:	e30f02cc 	movw	r0, #62156	@ 0xf2cc
    8764:	e3400000 	movt	r0, #0
    8768:	eb001746 	bl	e488 <printk>
    876c:	eaffffda 	b	86dc <hardware_print_model+0xf8>
    8770:	e30f02d0 	movw	r0, #62160	@ 0xf2d0
    8774:	e3400000 	movt	r0, #0
    8778:	eb001742 	bl	e488 <printk>
    877c:	eaffffd6 	b	86dc <hardware_print_model+0xf8>
    8780:	e30f02c4 	movw	r0, #62148	@ 0xf2c4
    8784:	e3400000 	movt	r0, #0
    8788:	eb00173e 	bl	e488 <printk>
    878c:	eaffffd2 	b	86dc <hardware_print_model+0xf8>
    8790:	e30f0304 	movw	r0, #62212	@ 0xf304
    8794:	e3400000 	movt	r0, #0
    8798:	eb00173a 	bl	e488 <printk>
    879c:	eaffffce 	b	86dc <hardware_print_model+0xf8>
    87a0:	e30f02e0 	movw	r0, #62176	@ 0xf2e0
    87a4:	e3400000 	movt	r0, #0
    87a8:	eb001736 	bl	e488 <printk>
    87ac:	eaffffca 	b	86dc <hardware_print_model+0xf8>
    87b0:	e30f02e8 	movw	r0, #62184	@ 0xf2e8
    87b4:	e3400000 	movt	r0, #0
    87b8:	eb001732 	bl	e488 <printk>
    87bc:	eaffffc6 	b	86dc <hardware_print_model+0xf8>
    87c0:	e30f02d4 	movw	r0, #62164	@ 0xf2d4
    87c4:	e3400000 	movt	r0, #0
    87c8:	eb00172e 	bl	e488 <printk>
    87cc:	eaffffc2 	b	86dc <hardware_print_model+0xf8>
    87d0:	e5941004 	ldr	r1, [r4, #4]
    87d4:	e30f031c 	movw	r0, #62236	@ 0xf31c
    87d8:	e3400000 	movt	r0, #0
    87dc:	eb001729 	bl	e488 <printk>
    87e0:	eaffffbd 	b	86dc <hardware_print_model+0xf8>

000087e4 <hardware_print_commandline>:
    87e4:	e92d4010 	push	{r4, lr}
    87e8:	e3044000 	movw	r4, #16384	@ 0x4000
    87ec:	e3404003 	movt	r4, #3
    87f0:	e30f0328 	movw	r0, #62248	@ 0xf328
    87f4:	e3400000 	movt	r0, #0
    87f8:	eb001722 	bl	e488 <printk>
    87fc:	e5943000 	ldr	r3, [r4]
    8800:	e3530000 	cmp	r3, #0
    8804:	08bd8010 	popeq	{r4, pc}
    8808:	e30f1348 	movw	r1, #62280	@ 0xf348
    880c:	e30f0354 	movw	r0, #62292	@ 0xf354
    8810:	e3401000 	movt	r1, #0
    8814:	e2842008 	add	r2, r4, #8
    8818:	e3400000 	movt	r0, #0
    881c:	e3a03b01 	mov	r3, #1024	@ 0x400
    8820:	eb0001ae 	bl	8ee0 <devicetree_find_string>
    8824:	e30002b8 	movw	r0, #696	@ 0x2b8
    8828:	e2841008 	add	r1, r4, #8
    882c:	e3400001 	movt	r0, #1
    8830:	e8bd4010 	pop	{r4, lr}
    8834:	ea001713 	b	e488 <printk>

00008838 <hardware_get_type>:
    8838:	e3013000 	movw	r3, #4096	@ 0x1000
    883c:	e3403003 	movt	r3, #3
    8840:	e5930000 	ldr	r0, [r3]
    8844:	e12fff1e 	bx	lr

00008848 <hardware_get_memory>:
    8848:	e3043000 	movw	r3, #16384	@ 0x4000
    884c:	e3403003 	movt	r3, #3
    8850:	e92d4070 	push	{r4, r5, r6, lr}
    8854:	e1a05000 	mov	r5, r0
    8858:	e5936000 	ldr	r6, [r3]
    885c:	e1a04001 	mov	r4, r1
    8860:	e3560000 	cmp	r6, #0
    8864:	1a000006 	bne	8884 <hardware_get_memory+0x3c>
    8868:	e30f035c 	movw	r0, #62300	@ 0xf35c
    886c:	e3400000 	movt	r0, #0
    8870:	eb001704 	bl	e488 <printk>
    8874:	e5856000 	str	r6, [r5]
    8878:	e3a00201 	mov	r0, #268435456	@ 0x10000000
    887c:	e5840000 	str	r0, [r4]
    8880:	e8bd8070 	pop	{r4, r5, r6, pc}
    8884:	e3a03000 	mov	r3, #0
    8888:	e5803000 	str	r3, [r0]
    888c:	eb0001e3 	bl	9020 <devicetree_get_memory>
    8890:	e5840000 	str	r0, [r4]
    8894:	e8bd8070 	pop	{r4, r5, r6, pc}

00008898 <hardware_setup_vars>:
    8898:	e3013000 	movw	r3, #4096	@ 0x1000
    889c:	e3403003 	movt	r3, #3
    88a0:	e5933000 	ldr	r3, [r3]
    88a4:	e353000d 	cmp	r3, #13
    88a8:	8a00000d 	bhi	88e4 <hardware_setup_vars+0x4c>
    88ac:	e3530003 	cmp	r3, #3
    88b0:	9a000016 	bls	8910 <hardware_setup_vars+0x78>
    88b4:	e3a02001 	mov	r2, #1
    88b8:	e1a02312 	lsl	r2, r2, r3
    88bc:	e3120d6a 	tst	r2, #6784	@ 0x1a80
    88c0:	1a00001f 	bne	8944 <hardware_setup_vars+0xac>
    88c4:	e3021150 	movw	r1, #8528	@ 0x2150
    88c8:	e1120001 	tst	r2, r1
    88cc:	0a000021 	beq	8958 <hardware_setup_vars+0xc0>
    88d0:	e3043000 	movw	r3, #16384	@ 0x4000
    88d4:	e3a02202 	mov	r2, #536870912	@ 0x20000000
    88d8:	e3403003 	movt	r3, #3
    88dc:	e5832408 	str	r2, [r3, #1032]	@ 0x408
    88e0:	e12fff1e 	bx	lr
    88e4:	e353000f 	cmp	r3, #15
    88e8:	0a000021 	beq	8974 <hardware_setup_vars+0xdc>
    88ec:	e3530010 	cmp	r3, #16
    88f0:	1a000011 	bne	893c <hardware_setup_vars+0xa4>
    88f4:	e3043000 	movw	r3, #16384	@ 0x4000
    88f8:	e3a0102a 	mov	r1, #42	@ 0x2a
    88fc:	e3403003 	movt	r3, #3
    8900:	e3a024fe 	mov	r2, #-33554432	@ 0xfe000000
    8904:	e583140c 	str	r1, [r3, #1036]	@ 0x40c
    8908:	e5832408 	str	r2, [r3, #1032]	@ 0x408
    890c:	e12fff1e 	bx	lr
    8910:	e3530002 	cmp	r3, #2
    8914:	0affffed 	beq	88d0 <hardware_setup_vars+0x38>
    8918:	e3d33002 	bics	r3, r3, #2
    891c:	0a00000f 	beq	8960 <hardware_setup_vars+0xc8>
    8920:	e3043000 	movw	r3, #16384	@ 0x4000
    8924:	e3a01202 	mov	r1, #536870912	@ 0x20000000
    8928:	e3403003 	movt	r3, #3
    892c:	e3a02010 	mov	r2, #16
    8930:	e5831408 	str	r1, [r3, #1032]	@ 0x408
    8934:	e583240c 	str	r2, [r3, #1036]	@ 0x40c
    8938:	e12fff1e 	bx	lr
    893c:	e353000e 	cmp	r3, #14
    8940:	1a000006 	bne	8960 <hardware_setup_vars+0xc8>
    8944:	e3043000 	movw	r3, #16384	@ 0x4000
    8948:	e3a0243f 	mov	r2, #1056964608	@ 0x3f000000
    894c:	e3403003 	movt	r3, #3
    8950:	e5832408 	str	r2, [r3, #1032]	@ 0x408
    8954:	e12fff1e 	bx	lr
    8958:	e353000a 	cmp	r3, #10
    895c:	0a000004 	beq	8974 <hardware_setup_vars+0xdc>
    8960:	e3043000 	movw	r3, #16384	@ 0x4000
    8964:	e3a024fe 	mov	r2, #-33554432	@ 0xfe000000
    8968:	e3403003 	movt	r3, #3
    896c:	e5832408 	str	r2, [r3, #1032]	@ 0x408
    8970:	e12fff1e 	bx	lr
    8974:	e3043000 	movw	r3, #16384	@ 0x4000
    8978:	e3a0143f 	mov	r1, #1056964608	@ 0x3f000000
    897c:	e3403003 	movt	r3, #3
    8980:	e3a0201d 	mov	r2, #29
    8984:	e5831408 	str	r1, [r3, #1032]	@ 0x408
    8988:	e583240c 	str	r2, [r3, #1036]	@ 0x40c
    898c:	e12fff1e 	bx	lr

00008990 <big_to_little64>:
    8990:	e1a02821 	lsr	r2, r1, #16
    8994:	e1a03000 	mov	r3, r0
    8998:	e7e7c850 	ubfx	ip, r0, #16, #8
    899c:	e2022cff 	and	r2, r2, #65280	@ 0xff00
    89a0:	e18ccc23 	orr	ip, ip, r3, lsr #24
    89a4:	e20108ff 	and	r0, r1, #16711680	@ 0xff0000
    89a8:	e1822000 	orr	r2, r2, r0
    89ac:	e1a00801 	lsl	r0, r1, #16
    89b0:	e20004ff 	and	r0, r0, #-16777216	@ 0xff000000
    89b4:	e1820000 	orr	r0, r2, r0
    89b8:	e2032cff 	and	r2, r3, #65280	@ 0xff00
    89bc:	e1a03803 	lsl	r3, r3, #16
    89c0:	e1800c01 	orr	r0, r0, r1, lsl #24
    89c4:	e20338ff 	and	r3, r3, #16711680	@ 0xff0000
    89c8:	e18c1002 	orr	r1, ip, r2
    89cc:	e1811003 	orr	r1, r1, r3
    89d0:	e12fff1e 	bx	lr

000089d4 <dt_parse_node>:
    89d4:	e92d4ff0 	push	{r4, r5, r6, r7, r8, r9, sl, fp, lr}
    89d8:	e1a06000 	mov	r6, r0
    89dc:	e5910000 	ldr	r0, [r1]
    89e0:	e1a05001 	mov	r5, r1
    89e4:	e24ddf45 	sub	sp, sp, #276	@ 0x114
    89e8:	e7961100 	ldr	r1, [r6, r0, lsl #2]
    89ec:	e58d3000 	str	r3, [sp]
    89f0:	e3510401 	cmp	r1, #16777216	@ 0x1000000
    89f4:	1a000083 	bne	8c08 <dt_parse_node+0x234>
    89f8:	e1a03100 	lsl	r3, r0, #2
    89fc:	e2800001 	add	r0, r0, #1
    8a00:	e5850000 	str	r0, [r5]
    8a04:	e2831004 	add	r1, r3, #4
    8a08:	e0861001 	add	r1, r6, r1
    8a0c:	e1a0a002 	mov	sl, r2
    8a10:	e28d0010 	add	r0, sp, #16
    8a14:	e3a02080 	mov	r2, #128	@ 0x80
    8a18:	eb001705 	bl	e634 <strlcpy>
    8a1c:	e5954000 	ldr	r4, [r5]
    8a20:	e0863104 	add	r3, r6, r4, lsl #2
    8a24:	e4938004 	ldr	r8, [r3], #4
    8a28:	e2844001 	add	r4, r4, #1
    8a2c:	e1b08c28 	lsrs	r8, r8, #24
    8a30:	1afffffb 	bne	8a24 <dt_parse_node+0x50>
    8a34:	e5854000 	str	r4, [r5]
    8a38:	e30f93b0 	movw	r9, #62384	@ 0xf3b0
    8a3c:	e3409000 	movt	r9, #0
    8a40:	e304b410 	movw	fp, #17424	@ 0x4410
    8a44:	e340b003 	movt	fp, #3
    8a48:	e58d8004 	str	r8, [sp, #4]
    8a4c:	e7961104 	ldr	r1, [r6, r4, lsl #2]
    8a50:	e1a03104 	lsl	r3, r4, #2
    8a54:	e3510301 	cmp	r1, #67108864	@ 0x4000000
    8a58:	0a000009 	beq	8a84 <dt_parse_node+0xb0>
    8a5c:	e3510403 	cmp	r1, #50331648	@ 0x3000000
    8a60:	0a00000f 	beq	8aa4 <dt_parse_node+0xd0>
    8a64:	e3510401 	cmp	r1, #16777216	@ 0x1000000
    8a68:	0a000051 	beq	8bb4 <dt_parse_node+0x1e0>
    8a6c:	e3510402 	cmp	r1, #33554432	@ 0x2000000
    8a70:	0a000058 	beq	8bd8 <dt_parse_node+0x204>
    8a74:	e6bf1f31 	rev	r1, r1
    8a78:	e1a00009 	mov	r0, r9
    8a7c:	eb001681 	bl	e488 <printk>
    8a80:	e5954000 	ldr	r4, [r5]
    8a84:	e2844001 	add	r4, r4, #1
    8a88:	e5854000 	str	r4, [r5]
    8a8c:	e7961104 	ldr	r1, [r6, r4, lsl #2]
    8a90:	e1a03104 	lsl	r3, r4, #2
    8a94:	e3510301 	cmp	r1, #67108864	@ 0x4000000
    8a98:	0afffff9 	beq	8a84 <dt_parse_node+0xb0>
    8a9c:	e3510403 	cmp	r1, #50331648	@ 0x3000000
    8aa0:	1affffef 	bne	8a64 <dt_parse_node+0x90>
    8aa4:	e0863003 	add	r3, r6, r3
    8aa8:	e3a02000 	mov	r2, #0
    8aac:	e5cd2094 	strb	r2, [sp, #148]	@ 0x94
    8ab0:	e5932008 	ldr	r2, [r3, #8]
    8ab4:	e59b0014 	ldr	r0, [fp, #20]
    8ab8:	e5937004 	ldr	r7, [r3, #4]
    8abc:	e59b1000 	ldr	r1, [fp]
    8ac0:	e6bf3f32 	rev	r3, r2
    8ac4:	e3a02080 	mov	r2, #128	@ 0x80
    8ac8:	e0830000 	add	r0, r3, r0
    8acc:	e58d300c 	str	r3, [sp, #12]
    8ad0:	e2843002 	add	r3, r4, #2
    8ad4:	e0811000 	add	r1, r1, r0
    8ad8:	e28d0090 	add	r0, sp, #144	@ 0x90
    8adc:	e5853000 	str	r3, [r5]
    8ae0:	e6bf7f37 	rev	r7, r7
    8ae4:	eb0016d2 	bl	e634 <strlcpy>
    8ae8:	e35a0000 	cmp	sl, #0
    8aec:	0a000005 	beq	8b08 <dt_parse_node+0x134>
    8af0:	e3a02080 	mov	r2, #128	@ 0x80
    8af4:	e28d1010 	add	r1, sp, #16
    8af8:	e1a0000a 	mov	r0, sl
    8afc:	eb001691 	bl	e548 <strncmp>
    8b00:	e3500000 	cmp	r0, #0
    8b04:	1a000005 	bne	8b20 <dt_parse_node+0x14c>
    8b08:	e59d1000 	ldr	r1, [sp]
    8b0c:	e3a02080 	mov	r2, #128	@ 0x80
    8b10:	e28d0090 	add	r0, sp, #144	@ 0x90
    8b14:	eb00168b 	bl	e548 <strncmp>
    8b18:	e3500000 	cmp	r0, #0
    8b1c:	0a000033 	beq	8bf0 <dt_parse_node+0x21c>
    8b20:	e5954000 	ldr	r4, [r5]
    8b24:	e2877003 	add	r7, r7, #3
    8b28:	e1b07127 	lsrs	r7, r7, #2
    8b2c:	e2844001 	add	r4, r4, #1
    8b30:	e5854000 	str	r4, [r5]
    8b34:	0affffc4 	beq	8a4c <dt_parse_node+0x78>
    8b38:	e1a02004 	mov	r2, r4
    8b3c:	e3a08000 	mov	r8, #0
    8b40:	ea000000 	b	8b48 <dt_parse_node+0x174>
    8b44:	e5952000 	ldr	r2, [r5]
    8b48:	e7963102 	ldr	r3, [r6, r2, lsl #2]
    8b4c:	e2822001 	add	r2, r2, #1
    8b50:	e5852000 	str	r2, [r5]
    8b54:	e28d100c 	add	r1, sp, #12
    8b58:	e58d300c 	str	r3, [sp, #12]
    8b5c:	e3a02004 	mov	r2, #4
    8b60:	e28d0090 	add	r0, sp, #144	@ 0x90
    8b64:	e2888001 	add	r8, r8, #1
    8b68:	eb0014c6 	bl	de88 <memcpy>
    8b6c:	e1570008 	cmp	r7, r8
    8b70:	1afffff3 	bne	8b44 <dt_parse_node+0x170>
    8b74:	e3a08000 	mov	r8, #0
    8b78:	ea000000 	b	8b80 <dt_parse_node+0x1ac>
    8b7c:	e5954000 	ldr	r4, [r5]
    8b80:	e7963104 	ldr	r3, [r6, r4, lsl #2]
    8b84:	e2844001 	add	r4, r4, #1
    8b88:	e5854000 	str	r4, [r5]
    8b8c:	e3a02004 	mov	r2, #4
    8b90:	e58d300c 	str	r3, [sp, #12]
    8b94:	e28d100c 	add	r1, sp, #12
    8b98:	e28d0090 	add	r0, sp, #144	@ 0x90
    8b9c:	e2888001 	add	r8, r8, #1
    8ba0:	eb0014b8 	bl	de88 <memcpy>
    8ba4:	e1570008 	cmp	r7, r8
    8ba8:	1afffff3 	bne	8b7c <dt_parse_node+0x1a8>
    8bac:	e5954000 	ldr	r4, [r5]
    8bb0:	eaffffa5 	b	8a4c <dt_parse_node+0x78>
    8bb4:	e59d3000 	ldr	r3, [sp]
    8bb8:	e1a0200a 	mov	r2, sl
    8bbc:	e1a01005 	mov	r1, r5
    8bc0:	e1a00006 	mov	r0, r6
    8bc4:	ebffff82 	bl	89d4 <dt_parse_node>
    8bc8:	e3500000 	cmp	r0, #0
    8bcc:	0afffff6 	beq	8bac <dt_parse_node+0x1d8>
    8bd0:	e1a08000 	mov	r8, r0
    8bd4:	ea000002 	b	8be4 <dt_parse_node+0x210>
    8bd8:	e59d8004 	ldr	r8, [sp, #4]
    8bdc:	e2844001 	add	r4, r4, #1
    8be0:	e5854000 	str	r4, [r5]
    8be4:	e1a00008 	mov	r0, r8
    8be8:	e28ddf45 	add	sp, sp, #276	@ 0x114
    8bec:	e8bd8ff0 	pop	{r4, r5, r6, r7, r8, r9, sl, fp, pc}
    8bf0:	e2944001 	adds	r4, r4, #1
    8bf4:	0affffec 	beq	8bac <dt_parse_node+0x1d8>
    8bf8:	e1a08004 	mov	r8, r4
    8bfc:	e1a00008 	mov	r0, r8
    8c00:	e28ddf45 	add	sp, sp, #276	@ 0x114
    8c04:	e8bd8ff0 	pop	{r4, r5, r6, r7, r8, r9, sl, fp, pc}
    8c08:	e30f038c 	movw	r0, #62348	@ 0xf38c
    8c0c:	e3e08000 	mvn	r8, #0
    8c10:	e3400000 	movt	r0, #0
    8c14:	eb00161b 	bl	e488 <printk>
    8c18:	e5953000 	ldr	r3, [r5]
    8c1c:	e1a00008 	mov	r0, r8
    8c20:	e2833001 	add	r3, r3, #1
    8c24:	e5853000 	str	r3, [r5]
    8c28:	e28ddf45 	add	sp, sp, #276	@ 0x114
    8c2c:	e8bd8ff0 	pop	{r4, r5, r6, r7, r8, r9, sl, fp, pc}

00008c30 <devicetree_find_node_prop>:
    8c30:	e92d40f0 	push	{r4, r5, r6, r7, lr}
    8c34:	e3044410 	movw	r4, #17424	@ 0x4410
    8c38:	e3404003 	movt	r4, #3
    8c3c:	e24dd00c 	sub	sp, sp, #12
    8c40:	e5943004 	ldr	r3, [r4, #4]
    8c44:	e3530000 	cmp	r3, #0
    8c48:	0a00001d 	beq	8cc4 <devicetree_find_node_prop+0x94>
    8c4c:	e5943010 	ldr	r3, [r4, #16]
    8c50:	e1a06000 	mov	r6, r0
    8c54:	e5945000 	ldr	r5, [r4]
    8c58:	e1a07001 	mov	r7, r1
    8c5c:	e0855003 	add	r5, r5, r3
    8c60:	e3a03000 	mov	r3, #0
    8c64:	e58d3004 	str	r3, [sp, #4]
    8c68:	ea000009 	b	8c94 <devicetree_find_node_prop+0x64>
    8c6c:	e59dc004 	ldr	ip, [sp, #4]
    8c70:	e795310c 	ldr	r3, [r5, ip, lsl #2]
    8c74:	e1a0c10c 	lsl	ip, ip, #2
    8c78:	e3530409 	cmp	r3, #150994944	@ 0x9000000
    8c7c:	0a00000d 	beq	8cb8 <devicetree_find_node_prop+0x88>
    8c80:	e5942010 	ldr	r2, [r4, #16]
    8c84:	e594300c 	ldr	r3, [r4, #12]
    8c88:	e08cc002 	add	ip, ip, r2
    8c8c:	e15c0003 	cmp	ip, r3
    8c90:	8a000008 	bhi	8cb8 <devicetree_find_node_prop+0x88>
    8c94:	e1a03007 	mov	r3, r7
    8c98:	e1a02006 	mov	r2, r6
    8c9c:	e28d1004 	add	r1, sp, #4
    8ca0:	e1a00005 	mov	r0, r5
    8ca4:	ebffff4a 	bl	89d4 <dt_parse_node>
    8ca8:	e3500000 	cmp	r0, #0
    8cac:	0affffee 	beq	8c6c <devicetree_find_node_prop+0x3c>
    8cb0:	e28dd00c 	add	sp, sp, #12
    8cb4:	e8bd80f0 	pop	{r4, r5, r6, r7, pc}
    8cb8:	e3e00001 	mvn	r0, #1
    8cbc:	e28dd00c 	add	sp, sp, #12
    8cc0:	e8bd80f0 	pop	{r4, r5, r6, r7, pc}
    8cc4:	e3e00012 	mvn	r0, #18
    8cc8:	eafffff8 	b	8cb0 <devicetree_find_node_prop+0x80>

00008ccc <devicetree_setup>:
    8ccc:	e3043410 	movw	r3, #17424	@ 0x4410
    8cd0:	e3a02000 	mov	r2, #0
    8cd4:	e3403003 	movt	r3, #3
    8cd8:	e3a01edd 	mov	r1, #3536	@ 0xdd0
    8cdc:	e34e1dfe 	movt	r1, #60926	@ 0xedfe
    8ce0:	e5832004 	str	r2, [r3, #4]
    8ce4:	e5902000 	ldr	r2, [r0]
    8ce8:	e1520001 	cmp	r2, r1
    8cec:	e6bf2f32 	rev	r2, r2
    8cf0:	e5832008 	str	r2, [r3, #8]
    8cf4:	1a00001f 	bne	8d78 <devicetree_setup+0xac>
    8cf8:	e5830000 	str	r0, [r3]
    8cfc:	e3a02001 	mov	r2, #1
    8d00:	e5832004 	str	r2, [r3, #4]
    8d04:	e5902004 	ldr	r2, [r0, #4]
    8d08:	e6bf2f32 	rev	r2, r2
    8d0c:	e583200c 	str	r2, [r3, #12]
    8d10:	e5902008 	ldr	r2, [r0, #8]
    8d14:	e6bf2f32 	rev	r2, r2
    8d18:	e5832010 	str	r2, [r3, #16]
    8d1c:	e590200c 	ldr	r2, [r0, #12]
    8d20:	e6bf2f32 	rev	r2, r2
    8d24:	e5832014 	str	r2, [r3, #20]
    8d28:	e5902010 	ldr	r2, [r0, #16]
    8d2c:	e6bf2f32 	rev	r2, r2
    8d30:	e5832018 	str	r2, [r3, #24]
    8d34:	e590c014 	ldr	ip, [r0, #20]
    8d38:	e6bf1f3c 	rev	r1, ip
    8d3c:	e583101c 	str	r1, [r3, #28]
    8d40:	e3510001 	cmp	r1, #1
    8d44:	e5902018 	ldr	r2, [r0, #24]
    8d48:	e6bf2f32 	rev	r2, r2
    8d4c:	e5832020 	str	r2, [r3, #32]
    8d50:	9a000006 	bls	8d70 <devicetree_setup+0xa4>
    8d54:	e590201c 	ldr	r2, [r0, #28]
    8d58:	e35c0402 	cmp	ip, #33554432	@ 0x2000000
    8d5c:	e6bf2f32 	rev	r2, r2
    8d60:	e5832024 	str	r2, [r3, #36]	@ 0x24
    8d64:	15902020 	ldrne	r2, [r0, #32]
    8d68:	16bf2f32 	revne	r2, r2
    8d6c:	15832028 	strne	r2, [r3, #40]	@ 0x28
    8d70:	e3a00000 	mov	r0, #0
    8d74:	e12fff1e 	bx	lr
    8d78:	e3e00012 	mvn	r0, #18
    8d7c:	e12fff1e 	bx	lr

00008d80 <devicetree_find_reserved>:
    8d80:	e92d43f0 	push	{r4, r5, r6, r7, r8, r9, lr}
    8d84:	e3045410 	movw	r5, #17424	@ 0x4410
    8d88:	e3405003 	movt	r5, #3
    8d8c:	e24dd00c 	sub	sp, sp, #12
    8d90:	e5953004 	ldr	r3, [r5, #4]
    8d94:	e3530000 	cmp	r3, #0
    8d98:	0a00004e 	beq	8ed8 <devicetree_find_reserved+0x158>
    8d9c:	e30f03c0 	movw	r0, #62400	@ 0xf3c0
    8da0:	e3400000 	movt	r0, #0
    8da4:	eb0015b7 	bl	e488 <printk>
    8da8:	e5951008 	ldr	r1, [r5, #8]
    8dac:	e30f03d0 	movw	r0, #62416	@ 0xf3d0
    8db0:	e3400000 	movt	r0, #0
    8db4:	eb0015b3 	bl	e488 <printk>
    8db8:	e595100c 	ldr	r1, [r5, #12]
    8dbc:	e30f03e0 	movw	r0, #62432	@ 0xf3e0
    8dc0:	e3400000 	movt	r0, #0
    8dc4:	eb0015af 	bl	e488 <printk>
    8dc8:	e5951010 	ldr	r1, [r5, #16]
    8dcc:	e30f03f4 	movw	r0, #62452	@ 0xf3f4
    8dd0:	e3400000 	movt	r0, #0
    8dd4:	eb0015ab 	bl	e488 <printk>
    8dd8:	e5951014 	ldr	r1, [r5, #20]
    8ddc:	e30f0408 	movw	r0, #62472	@ 0xf408
    8de0:	e3400000 	movt	r0, #0
    8de4:	eb0015a7 	bl	e488 <printk>
    8de8:	e5951018 	ldr	r1, [r5, #24]
    8dec:	e30f041c 	movw	r0, #62492	@ 0xf41c
    8df0:	e3400000 	movt	r0, #0
    8df4:	eb0015a3 	bl	e488 <printk>
    8df8:	e595101c 	ldr	r1, [r5, #28]
    8dfc:	e30f0430 	movw	r0, #62512	@ 0xf430
    8e00:	e3400000 	movt	r0, #0
    8e04:	eb00159f 	bl	e488 <printk>
    8e08:	e5951020 	ldr	r1, [r5, #32]
    8e0c:	e30f0444 	movw	r0, #62532	@ 0xf444
    8e10:	e3400000 	movt	r0, #0
    8e14:	eb00159b 	bl	e488 <printk>
    8e18:	e595301c 	ldr	r3, [r5, #28]
    8e1c:	e3530001 	cmp	r3, #1
    8e20:	8a000020 	bhi	8ea8 <devicetree_find_reserved+0x128>
    8e24:	e5954000 	ldr	r4, [r5]
    8e28:	e30f0478 	movw	r0, #62584	@ 0xf478
    8e2c:	e5953018 	ldr	r3, [r5, #24]
    8e30:	e30f748c 	movw	r7, #62604	@ 0xf48c
    8e34:	e3400000 	movt	r0, #0
    8e38:	e0844003 	add	r4, r4, r3
    8e3c:	e3407000 	movt	r7, #0
    8e40:	eb001590 	bl	e488 <printk>
    8e44:	ea00000c 	b	8e7c <devicetree_find_reserved+0xfc>
    8e48:	ebfffed0 	bl	8990 <big_to_little64>
    8e4c:	e1a06000 	mov	r6, r0
    8e50:	e1a05001 	mov	r5, r1
    8e54:	e1a00009 	mov	r0, r9
    8e58:	e1a01008 	mov	r1, r8
    8e5c:	ebfffecb 	bl	8990 <big_to_little64>
    8e60:	e1a08000 	mov	r8, r0
    8e64:	e1a09001 	mov	r9, r1
    8e68:	e1a02006 	mov	r2, r6
    8e6c:	e1a03005 	mov	r3, r5
    8e70:	e1a00007 	mov	r0, r7
    8e74:	e1cd80f0 	strd	r8, [sp]
    8e78:	eb001582 	bl	e488 <printk>
    8e7c:	e1c400d8 	ldrd	r0, [r4, #8]
    8e80:	e5949000 	ldr	r9, [r4]
    8e84:	e2844010 	add	r4, r4, #16
    8e88:	e514800c 	ldr	r8, [r4, #-12]
    8e8c:	e1893000 	orr	r3, r9, r0
    8e90:	e1882001 	orr	r2, r8, r1
    8e94:	e1933002 	orrs	r3, r3, r2
    8e98:	1affffea 	bne	8e48 <devicetree_find_reserved+0xc8>
    8e9c:	e3a00000 	mov	r0, #0
    8ea0:	e28dd00c 	add	sp, sp, #12
    8ea4:	e8bd83f0 	pop	{r4, r5, r6, r7, r8, r9, pc}
    8ea8:	e5951024 	ldr	r1, [r5, #36]	@ 0x24
    8eac:	e30f0458 	movw	r0, #62552	@ 0xf458
    8eb0:	e3400000 	movt	r0, #0
    8eb4:	eb001573 	bl	e488 <printk>
    8eb8:	e595301c 	ldr	r3, [r5, #28]
    8ebc:	e3530002 	cmp	r3, #2
    8ec0:	9affffd7 	bls	8e24 <devicetree_find_reserved+0xa4>
    8ec4:	e5951028 	ldr	r1, [r5, #40]	@ 0x28
    8ec8:	e30f0468 	movw	r0, #62568	@ 0xf468
    8ecc:	e3400000 	movt	r0, #0
    8ed0:	eb00156c 	bl	e488 <printk>
    8ed4:	eaffffd2 	b	8e24 <devicetree_find_reserved+0xa4>
    8ed8:	e3e00012 	mvn	r0, #18
    8edc:	eaffffef 	b	8ea0 <devicetree_find_reserved+0x120>

00008ee0 <devicetree_find_string>:
    8ee0:	e92d4010 	push	{r4, lr}
    8ee4:	e1a04002 	mov	r4, r2
    8ee8:	ebffff50 	bl	8c30 <devicetree_find_node_prop>
    8eec:	e3042410 	movw	r2, #17424	@ 0x4410
    8ef0:	e3402003 	movt	r2, #3
    8ef4:	e5923004 	ldr	r3, [r2, #4]
    8ef8:	e3530000 	cmp	r3, #0
    8efc:	0a00000f 	beq	8f40 <devicetree_find_string+0x60>
    8f00:	e5923000 	ldr	r3, [r2]
    8f04:	e5922010 	ldr	r2, [r2, #16]
    8f08:	e0833002 	add	r3, r3, r2
    8f0c:	e7932100 	ldr	r2, [r3, r0, lsl #2]
    8f10:	e0833100 	add	r3, r3, r0, lsl #2
    8f14:	e6bf0f32 	rev	r0, r2
    8f18:	e3520000 	cmp	r2, #0
    8f1c:	e2833008 	add	r3, r3, #8
    8f20:	0a000006 	beq	8f40 <devicetree_find_string+0x60>
    8f24:	e2433001 	sub	r3, r3, #1
    8f28:	e2442001 	sub	r2, r4, #1
    8f2c:	e0830000 	add	r0, r3, r0
    8f30:	e5f31001 	ldrb	r1, [r3, #1]!
    8f34:	e1500003 	cmp	r0, r3
    8f38:	e5e21001 	strb	r1, [r2, #1]!
    8f3c:	1afffffb 	bne	8f30 <devicetree_find_string+0x50>
    8f40:	e3a00000 	mov	r0, #0
    8f44:	e8bd8010 	pop	{r4, pc}

00008f48 <devicetree_find_int>:
    8f48:	e92d4010 	push	{r4, lr}
    8f4c:	e1a04002 	mov	r4, r2
    8f50:	ebffff36 	bl	8c30 <devicetree_find_node_prop>
    8f54:	e3043410 	movw	r3, #17424	@ 0x4410
    8f58:	e3403003 	movt	r3, #3
    8f5c:	e5932004 	ldr	r2, [r3, #4]
    8f60:	e3520000 	cmp	r2, #0
    8f64:	0a000009 	beq	8f90 <devicetree_find_int+0x48>
    8f68:	e5931000 	ldr	r1, [r3]
    8f6c:	e5933010 	ldr	r3, [r3, #16]
    8f70:	e0813003 	add	r3, r1, r3
    8f74:	e0832100 	add	r2, r3, r0, lsl #2
    8f78:	e7931100 	ldr	r1, [r3, r0, lsl #2]
    8f7c:	e5923008 	ldr	r3, [r2, #8]
    8f80:	e3510301 	cmp	r1, #67108864	@ 0x4000000
    8f84:	e6bf3f33 	rev	r3, r3
    8f88:	e5843000 	str	r3, [r4]
    8f8c:	1a000001 	bne	8f98 <devicetree_find_int+0x50>
    8f90:	e3a00000 	mov	r0, #0
    8f94:	e8bd8010 	pop	{r4, pc}
    8f98:	e6bf1f31 	rev	r1, r1
    8f9c:	e30f04b8 	movw	r0, #62648	@ 0xf4b8
    8fa0:	e3400000 	movt	r0, #0
    8fa4:	eb001537 	bl	e488 <printk>
    8fa8:	e3a00000 	mov	r0, #0
    8fac:	e8bd8010 	pop	{r4, pc}

00008fb0 <devicetree_find_int64>:
    8fb0:	e92d4010 	push	{r4, lr}
    8fb4:	e1a04002 	mov	r4, r2
    8fb8:	ebffff1c 	bl	8c30 <devicetree_find_node_prop>
    8fbc:	e3043410 	movw	r3, #17424	@ 0x4410
    8fc0:	e3403003 	movt	r3, #3
    8fc4:	e5932004 	ldr	r2, [r3, #4]
    8fc8:	e3520000 	cmp	r2, #0
    8fcc:	0a00000b 	beq	9000 <devicetree_find_int64+0x50>
    8fd0:	e5932010 	ldr	r2, [r3, #16]
    8fd4:	e5933000 	ldr	r3, [r3]
    8fd8:	e0833002 	add	r3, r3, r2
    8fdc:	e083c100 	add	ip, r3, r0, lsl #2
    8fe0:	e7931100 	ldr	r1, [r3, r0, lsl #2]
    8fe4:	e1cc20d8 	ldrd	r2, [ip, #8]
    8fe8:	e3510302 	cmp	r1, #134217728	@ 0x8000000
    8fec:	e6bf2f32 	rev	r2, r2
    8ff0:	e6bf3f33 	rev	r3, r3
    8ff4:	e5842004 	str	r2, [r4, #4]
    8ff8:	e5843000 	str	r3, [r4]
    8ffc:	1a000001 	bne	9008 <devicetree_find_int64+0x58>
    9000:	e3a00000 	mov	r0, #0
    9004:	e8bd8010 	pop	{r4, pc}
    9008:	e6bf1f31 	rev	r1, r1
    900c:	e30f04e4 	movw	r0, #62692	@ 0xf4e4
    9010:	e3400000 	movt	r0, #0
    9014:	eb00151b 	bl	e488 <printk>
    9018:	e3a00000 	mov	r0, #0
    901c:	e8bd8010 	pop	{r4, pc}

00009020 <devicetree_get_memory>:
    9020:	e92d43f0 	push	{r4, r5, r6, r7, r8, r9, lr}
    9024:	e30f1510 	movw	r1, #62736	@ 0xf510
    9028:	e3401000 	movt	r1, #0
    902c:	e24dd02c 	sub	sp, sp, #44	@ 0x2c
    9030:	e28d2014 	add	r2, sp, #20
    9034:	e3a00000 	mov	r0, #0
    9038:	e3046410 	movw	r6, #17424	@ 0x4410
    903c:	ebffffc1 	bl	8f48 <devicetree_find_int>
    9040:	e59d7014 	ldr	r7, [sp, #20]
    9044:	e30f0520 	movw	r0, #62752	@ 0xf520
    9048:	e3400000 	movt	r0, #0
    904c:	e3406003 	movt	r6, #3
    9050:	e1a01007 	mov	r1, r7
    9054:	eb00150b 	bl	e488 <printk>
    9058:	e30f153c 	movw	r1, #62780	@ 0xf53c
    905c:	e28d2018 	add	r2, sp, #24
    9060:	e3401000 	movt	r1, #0
    9064:	e3a00000 	mov	r0, #0
    9068:	ebffffb6 	bl	8f48 <devicetree_find_int>
    906c:	e59d8018 	ldr	r8, [sp, #24]
    9070:	e30f0548 	movw	r0, #62792	@ 0xf548
    9074:	e3400000 	movt	r0, #0
    9078:	e1a01008 	mov	r1, r8
    907c:	eb001501 	bl	e488 <printk>
    9080:	e30f1564 	movw	r1, #62820	@ 0xf564
    9084:	e30f0568 	movw	r0, #62824	@ 0xf568
    9088:	e3401000 	movt	r1, #0
    908c:	e3400000 	movt	r0, #0
    9090:	ebfffee6 	bl	8c30 <devicetree_find_node_prop>
    9094:	e5963010 	ldr	r3, [r6, #16]
    9098:	e1a04000 	mov	r4, r0
    909c:	e5965000 	ldr	r5, [r6]
    90a0:	e1a09100 	lsl	r9, r0, #2
    90a4:	e0855003 	add	r5, r5, r3
    90a8:	e0852009 	add	r2, r5, r9
    90ac:	e7953100 	ldr	r3, [r5, r0, lsl #2]
    90b0:	e6bf1f33 	rev	r1, r3
    90b4:	e3530302 	cmp	r3, #134217728	@ 0x8000000
    90b8:	e58d101c 	str	r1, [sp, #28]
    90bc:	e5923004 	ldr	r3, [r2, #4]
    90c0:	e6bf3f33 	rev	r3, r3
    90c4:	e58d301c 	str	r3, [sp, #28]
    90c8:	0a000002 	beq	90d8 <devicetree_get_memory+0xb8>
    90cc:	e30f0570 	movw	r0, #62832	@ 0xf570
    90d0:	e3400000 	movt	r0, #0
    90d4:	eb0014eb 	bl	e488 <printk>
    90d8:	e3570001 	cmp	r7, #1
    90dc:	0a00006d 	beq	9298 <devicetree_get_memory+0x278>
    90e0:	e3570002 	cmp	r7, #2
    90e4:	0a000057 	beq	9248 <devicetree_get_memory+0x228>
    90e8:	e30f05ac 	movw	r0, #62892	@ 0xf5ac
    90ec:	e3a07000 	mov	r7, #0
    90f0:	e3400000 	movt	r0, #0
    90f4:	e2844002 	add	r4, r4, #2
    90f8:	e1a09007 	mov	r9, r7
    90fc:	eb0014e1 	bl	e488 <printk>
    9100:	e3580001 	cmp	r8, #1
    9104:	0a00005b 	beq	9278 <devicetree_get_memory+0x258>
    9108:	e3580002 	cmp	r8, #2
    910c:	0a000032 	beq	91dc <devicetree_get_memory+0x1bc>
    9110:	e30f05cc 	movw	r0, #62924	@ 0xf5cc
    9114:	e3400000 	movt	r0, #0
    9118:	eb0014da 	bl	e488 <printk>
    911c:	e30f1564 	movw	r1, #62820	@ 0xf564
    9120:	e30f05ec 	movw	r0, #62956	@ 0xf5ec
    9124:	e3401000 	movt	r1, #0
    9128:	e3400000 	movt	r0, #0
    912c:	ebfffebf 	bl	8c30 <devicetree_find_node_prop>
    9130:	e5963010 	ldr	r3, [r6, #16]
    9134:	e1a05000 	mov	r5, r0
    9138:	e5964000 	ldr	r4, [r6]
    913c:	e0844003 	add	r4, r4, r3
    9140:	e1a03100 	lsl	r3, r0, #2
    9144:	e7941100 	ldr	r1, [r4, r0, lsl #2]
    9148:	e3510302 	cmp	r1, #134217728	@ 0x8000000
    914c:	0a00005b 	beq	92c0 <devicetree_get_memory+0x2a0>
    9150:	e3510303 	cmp	r1, #201326592	@ 0xc000000
    9154:	0a000064 	beq	92ec <devicetree_get_memory+0x2cc>
    9158:	e3510306 	cmp	r1, #402653184	@ 0x18000000
    915c:	0a00006d 	beq	9318 <devicetree_get_memory+0x2f8>
    9160:	e6bf6f31 	rev	r6, r1
    9164:	e30f0640 	movw	r0, #63040	@ 0xf640
    9168:	e3400000 	movt	r0, #0
    916c:	e1a01006 	mov	r1, r6
    9170:	eb0014c4 	bl	e488 <printk>
    9174:	e1b01126 	lsrs	r1, r6, #2
    9178:	0a00000d 	beq	91b4 <devicetree_get_memory+0x194>
    917c:	e0851001 	add	r1, r5, r1
    9180:	e2855105 	add	r5, r5, #1073741825	@ 0x40000001
    9184:	e2843004 	add	r3, r4, #4
    9188:	e30f666c 	movw	r6, #63084	@ 0xf66c
    918c:	e0844105 	add	r4, r4, r5, lsl #2
    9190:	e3406000 	movt	r6, #0
    9194:	e0835101 	add	r5, r3, r1, lsl #2
    9198:	e5b42004 	ldr	r2, [r4, #4]!
    919c:	e3a03000 	mov	r3, #0
    91a0:	e1a00006 	mov	r0, r6
    91a4:	e6bf2f32 	rev	r2, r2
    91a8:	eb0014b6 	bl	e488 <printk>
    91ac:	e1550004 	cmp	r5, r4
    91b0:	1afffff8 	bne	9198 <devicetree_get_memory+0x178>
    91b4:	e3a07000 	mov	r7, #0
    91b8:	e1a09007 	mov	r9, r7
    91bc:	e30f0678 	movw	r0, #63096	@ 0xf678
    91c0:	e3a05201 	mov	r5, #268435456	@ 0x10000000
    91c4:	e3400000 	movt	r0, #0
    91c8:	eb0014ae 	bl	e488 <printk>
    91cc:	e3a02000 	mov	r2, #0
    91d0:	e3a03c01 	mov	r3, #256	@ 0x100
    91d4:	e1a04002 	mov	r4, r2
    91d8:	ea00000d 	b	9214 <devicetree_get_memory+0x1f4>
    91dc:	e0851104 	add	r1, r5, r4, lsl #2
    91e0:	e3a02008 	mov	r2, #8
    91e4:	e28d0020 	add	r0, sp, #32
    91e8:	eb001326 	bl	de88 <memcpy>
    91ec:	e1cd02d0 	ldrd	r0, [sp, #32]
    91f0:	ebfffde6 	bl	8990 <big_to_little64>
    91f4:	e1a05000 	mov	r5, r0
    91f8:	e1a04001 	mov	r4, r1
    91fc:	e3550b01 	cmp	r5, #1024	@ 0x400
    9200:	e2d43000 	sbcs	r3, r4, #0
    9204:	3affffc4 	bcc	911c <devicetree_get_memory+0xfc>
    9208:	e1a03a25 	lsr	r3, r5, #20
    920c:	e1833604 	orr	r3, r3, r4, lsl #12
    9210:	e1a02a24 	lsr	r2, r4, #20
    9214:	e58d3008 	str	r3, [sp, #8]
    9218:	e30f06b0 	movw	r0, #63152	@ 0xf6b0
    921c:	e58d200c 	str	r2, [sp, #12]
    9220:	e1a03004 	mov	r3, r4
    9224:	e58d7000 	str	r7, [sp]
    9228:	e1a02005 	mov	r2, r5
    922c:	e58d9004 	str	r9, [sp, #4]
    9230:	e3400000 	movt	r0, #0
    9234:	eb001493 	bl	e488 <printk>
    9238:	e1a00005 	mov	r0, r5
    923c:	e1a01004 	mov	r1, r4
    9240:	e28dd02c 	add	sp, sp, #44	@ 0x2c
    9244:	e8bd83f0 	pop	{r4, r5, r6, r7, r8, r9, pc}
    9248:	e2891008 	add	r1, r9, #8
    924c:	e3a02008 	mov	r2, #8
    9250:	e0851001 	add	r1, r5, r1
    9254:	e28d0020 	add	r0, sp, #32
    9258:	e2844004 	add	r4, r4, #4
    925c:	eb001309 	bl	de88 <memcpy>
    9260:	e1cd02d0 	ldrd	r0, [sp, #32]
    9264:	ebfffdc9 	bl	8990 <big_to_little64>
    9268:	e3580001 	cmp	r8, #1
    926c:	e1a07000 	mov	r7, r0
    9270:	e1a09001 	mov	r9, r1
    9274:	1affffa3 	bne	9108 <devicetree_get_memory+0xe8>
    9278:	e0851104 	add	r1, r5, r4, lsl #2
    927c:	e28d001c 	add	r0, sp, #28
    9280:	e3a02004 	mov	r2, #4
    9284:	e3a04000 	mov	r4, #0
    9288:	eb0012fe 	bl	de88 <memcpy>
    928c:	e59d501c 	ldr	r5, [sp, #28]
    9290:	e6bf5f35 	rev	r5, r5
    9294:	eaffffd8 	b	91fc <devicetree_get_memory+0x1dc>
    9298:	e2891008 	add	r1, r9, #8
    929c:	e3a02004 	mov	r2, #4
    92a0:	e0851001 	add	r1, r5, r1
    92a4:	e28d001c 	add	r0, sp, #28
    92a8:	e2844003 	add	r4, r4, #3
    92ac:	eb0012f5 	bl	de88 <memcpy>
    92b0:	e59d701c 	ldr	r7, [sp, #28]
    92b4:	e3a09000 	mov	r9, #0
    92b8:	e6bf7f37 	rev	r7, r7
    92bc:	eaffff8f 	b	9100 <devicetree_get_memory+0xe0>
    92c0:	e0843003 	add	r3, r4, r3
    92c4:	e3a09000 	mov	r9, #0
    92c8:	e1a04009 	mov	r4, r9
    92cc:	e5937008 	ldr	r7, [r3, #8]
    92d0:	e593500c 	ldr	r5, [r3, #12]
    92d4:	e6bf7f37 	rev	r7, r7
    92d8:	e6bf5f35 	rev	r5, r5
    92dc:	e3550b01 	cmp	r5, #1024	@ 0x400
    92e0:	e2d43000 	sbcs	r3, r4, #0
    92e4:	2affffc7 	bcs	9208 <devicetree_get_memory+0x1e8>
    92e8:	eaffffb3 	b	91bc <devicetree_get_memory+0x19c>
    92ec:	e0844003 	add	r4, r4, r3
    92f0:	e1c400d8 	ldrd	r0, [r4, #8]
    92f4:	ebfffda5 	bl	8990 <big_to_little64>
    92f8:	e1a07000 	mov	r7, r0
    92fc:	e1a09001 	mov	r9, r1
    9300:	e5940010 	ldr	r0, [r4, #16]
    9304:	e3a01000 	mov	r1, #0
    9308:	ebfffda0 	bl	8990 <big_to_little64>
    930c:	e1a05000 	mov	r5, r0
    9310:	e1a04001 	mov	r4, r1
    9314:	eafffff0 	b	92dc <devicetree_get_memory+0x2bc>
    9318:	e0846003 	add	r6, r4, r3
    931c:	e3a04000 	mov	r4, #0
    9320:	e1c600d8 	ldrd	r0, [r6, #8]
    9324:	ebfffd99 	bl	8990 <big_to_little64>
    9328:	e5965010 	ldr	r5, [r6, #16]
    932c:	e1a07000 	mov	r7, r0
    9330:	e1a09001 	mov	r9, r1
    9334:	e1c601d4 	ldrd	r0, [r6, #20]
    9338:	e6bf5f35 	rev	r5, r5
    933c:	ebfffd93 	bl	8990 <big_to_little64>
    9340:	e596201c 	ldr	r2, [r6, #28]
    9344:	e1cd00f0 	strd	r0, [sp]
    9348:	e6bf2f32 	rev	r2, r2
    934c:	e30f05f8 	movw	r0, #62968	@ 0xf5f8
    9350:	e58d400c 	str	r4, [sp, #12]
    9354:	e1a03a22 	lsr	r3, r2, #20
    9358:	e58d3008 	str	r3, [sp, #8]
    935c:	e1a03004 	mov	r3, r4
    9360:	e3400000 	movt	r0, #0
    9364:	eb001447 	bl	e488 <printk>
    9368:	eaffffdb 	b	92dc <devicetree_get_memory+0x2bc>

0000936c <platform_irq_enable>:
    936c:	e3013000 	movw	r3, #4096	@ 0x1000
    9370:	e3403003 	movt	r3, #3
    9374:	e5933000 	ldr	r3, [r3]
    9378:	e3530010 	cmp	r3, #16
    937c:	0a000001 	beq	9388 <platform_irq_enable+0x1c>
    9380:	e3a00000 	mov	r0, #0
    9384:	e12fff1e 	bx	lr
    9388:	e30f06e8 	movw	r0, #63208	@ 0xf6e8
    938c:	e92d4010 	push	{r4, lr}
    9390:	e3400000 	movt	r0, #0
    9394:	eb00143b 	bl	e488 <printk>
    9398:	e3a00000 	mov	r0, #0
    939c:	e34f0f84 	movt	r0, #65412	@ 0xff84
    93a0:	eb0000cc 	bl	96d8 <gic400_init>
    93a4:	e3a00000 	mov	r0, #0
    93a8:	e8bd8010 	pop	{r4, pc}

000093ac <irq_enable>:
    93ac:	e3500040 	cmp	r0, #64	@ 0x40
    93b0:	e92d4070 	push	{r4, r5, r6, lr}
    93b4:	e1a04000 	mov	r4, r0
    93b8:	ca00000f 	bgt	93fc <irq_enable+0x50>
    93bc:	e3500000 	cmp	r0, #0
    93c0:	e280301f 	add	r3, r0, #31
    93c4:	a1a03000 	movge	r3, r0
    93c8:	e30b5210 	movw	r5, #45584	@ 0xb210
    93cc:	e204401f 	and	r4, r4, #31
    93d0:	e1a032c3 	asr	r3, r3, #5
    93d4:	e0855103 	add	r5, r5, r3, lsl #2
    93d8:	e1a00005 	mov	r0, r5
    93dc:	eb00057d 	bl	a9d8 <bcm2835_read>
    93e0:	e3a01001 	mov	r1, #1
    93e4:	e1a03000 	mov	r3, r0
    93e8:	e1a00005 	mov	r0, r5
    93ec:	e1831411 	orr	r1, r3, r1, lsl r4
    93f0:	eb000572 	bl	a9c0 <bcm2835_write>
    93f4:	e3a00000 	mov	r0, #0
    93f8:	e8bd8070 	pop	{r4, r5, r6, pc}
    93fc:	e30f0704 	movw	r0, #63236	@ 0xf704
    9400:	e1a01004 	mov	r1, r4
    9404:	e3400000 	movt	r0, #0
    9408:	eb00141e 	bl	e488 <printk>
    940c:	e3e00000 	mvn	r0, #0
    9410:	e8bd8070 	pop	{r4, r5, r6, pc}

00009414 <irq_disable>:
    9414:	e3500040 	cmp	r0, #64	@ 0x40
    9418:	e92d4070 	push	{r4, r5, r6, lr}
    941c:	e1a04000 	mov	r4, r0
    9420:	ca00000f 	bgt	9464 <irq_disable+0x50>
    9424:	e3500000 	cmp	r0, #0
    9428:	e280301f 	add	r3, r0, #31
    942c:	a1a03000 	movge	r3, r0
    9430:	e30b521c 	movw	r5, #45596	@ 0xb21c
    9434:	e204401f 	and	r4, r4, #31
    9438:	e1a032c3 	asr	r3, r3, #5
    943c:	e0855103 	add	r5, r5, r3, lsl #2
    9440:	e1a00005 	mov	r0, r5
    9444:	eb000563 	bl	a9d8 <bcm2835_read>
    9448:	e3a01001 	mov	r1, #1
    944c:	e1a03000 	mov	r3, r0
    9450:	e1a00005 	mov	r0, r5
    9454:	e1831411 	orr	r1, r3, r1, lsl r4
    9458:	eb000558 	bl	a9c0 <bcm2835_write>
    945c:	e3a00000 	mov	r0, #0
    9460:	e8bd8070 	pop	{r4, r5, r6, pc}
    9464:	e30f0704 	movw	r0, #63236	@ 0xf704
    9468:	e1a01004 	mov	r1, r4
    946c:	e3400000 	movt	r0, #0
    9470:	eb001404 	bl	e488 <printk>
    9474:	e3e00000 	mvn	r0, #0
    9478:	e8bd8070 	pop	{r4, r5, r6, pc}

0000947c <interrupt_handler_c>:
    947c:	e92d41f0 	push	{r4, r5, r6, r7, r8, lr}
    9480:	e3014000 	movw	r4, #4096	@ 0x1000
    9484:	e3404003 	movt	r4, #3
    9488:	e3a00cb2 	mov	r0, #45568	@ 0xb200
    948c:	e5943000 	ldr	r3, [r4]
    9490:	e3530010 	cmp	r3, #16
    9494:	0a00001b 	beq	9508 <interrupt_handler_c+0x8c>
    9498:	eb00054e 	bl	a9d8 <bcm2835_read>
    949c:	e3100702 	tst	r0, #524288	@ 0x80000
    94a0:	e1a05000 	mov	r5, r0
    94a4:	1a000006 	bne	94c4 <interrupt_handler_c+0x48>
    94a8:	e3100001 	tst	r0, #1
    94ac:	1a000021 	bne	9538 <interrupt_handler_c+0xbc>
    94b0:	e30f073c 	movw	r0, #63292	@ 0xf73c
    94b4:	e1a01005 	mov	r1, r5
    94b8:	e3400000 	movt	r0, #0
    94bc:	e8bd41f0 	pop	{r4, r5, r6, r7, r8, lr}
    94c0:	ea0013f0 	b	e488 <printk>
    94c4:	eb000a0e 	bl	bd04 <serial_interrupt_handler>
    94c8:	e3150001 	tst	r5, #1
    94cc:	1a000019 	bne	9538 <interrupt_handler_c+0xbc>
    94d0:	e5943000 	ldr	r3, [r4]
    94d4:	e3530010 	cmp	r3, #16
    94d8:	1a000003 	bne	94ec <interrupt_handler_c+0x70>
    94dc:	e3a03d4a 	mov	r3, #4736	@ 0x1280
    94e0:	e3e02000 	mvn	r2, #0
    94e4:	e34f3f84 	movt	r3, #65412	@ 0xff84
    94e8:	e5832000 	str	r2, [r3]
    94ec:	e3023020 	movw	r3, #8224	@ 0x2020
    94f0:	e3403003 	movt	r3, #3
    94f4:	e5933000 	ldr	r3, [r3]
    94f8:	e3530000 	cmp	r3, #0
    94fc:	08bd81f0 	popeq	{r4, r5, r6, r7, r8, pc}
    9500:	e8bd41f0 	pop	{r4, r5, r6, r7, r8, lr}
    9504:	ea0010d7 	b	d868 <schedule>
    9508:	eb000532 	bl	a9d8 <bcm2835_read>
    950c:	e1a07000 	mov	r7, r0
    9510:	e30b0204 	movw	r0, #45572	@ 0xb204
    9514:	eb00052f 	bl	a9d8 <bcm2835_read>
    9518:	e1a05000 	mov	r5, r0
    951c:	e30b0208 	movw	r0, #45576	@ 0xb208
    9520:	eb00052c 	bl	a9d8 <bcm2835_read>
    9524:	e3150402 	tst	r5, #33554432	@ 0x2000000
    9528:	e1a06000 	mov	r6, r0
    952c:	1a00000a 	bne	955c <interrupt_handler_c+0xe0>
    9530:	e3100001 	tst	r0, #1
    9534:	0a000001 	beq	9540 <interrupt_handler_c+0xc4>
    9538:	eb000a0d 	bl	bd74 <timer_interrupt_handler>
    953c:	eaffffe3 	b	94d0 <interrupt_handler_c+0x54>
    9540:	e30f0714 	movw	r0, #63252	@ 0xf714
    9544:	e1a03006 	mov	r3, r6
    9548:	e3400000 	movt	r0, #0
    954c:	e1a02005 	mov	r2, r5
    9550:	e1a01007 	mov	r1, r7
    9554:	e8bd41f0 	pop	{r4, r5, r6, r7, r8, lr}
    9558:	ea0013ca 	b	e488 <printk>
    955c:	eb0009e8 	bl	bd04 <serial_interrupt_handler>
    9560:	e3160001 	tst	r6, #1
    9564:	0affffd9 	beq	94d0 <interrupt_handler_c+0x54>
    9568:	eafffff2 	b	9538 <interrupt_handler_c+0xbc>

0000956c <fiq_handler>:
    956c:	e24ee004 	sub	lr, lr, #4
    9570:	e92d401f 	push	{r0, r1, r2, r3, r4, lr}
    9574:	e30f075c 	movw	r0, #63324	@ 0xf75c
    9578:	e3400000 	movt	r0, #0
    957c:	eb0013c1 	bl	e488 <printk>
    9580:	e8fd801f 	ldm	sp!, {r0, r1, r2, r3, r4, pc}^

00009584 <data_abort_handler>:
    9584:	e24ee004 	sub	lr, lr, #4
    9588:	e92d503f 	push	{r0, r1, r2, r3, r4, r5, ip, lr}
    958c:	e30f076c 	movw	r0, #63340	@ 0xf76c
    9590:	e3400000 	movt	r0, #0
    9594:	e24e1008 	sub	r1, lr, #8
    9598:	eb0013ba 	bl	e488 <printk>
    959c:	ee154f10 	mrc	15, 0, r4, cr5, cr0, {0}
    95a0:	ee165f10 	mrc	15, 0, r5, cr6, cr0, {0}
    95a4:	e204300f 	and	r3, r4, #15
    95a8:	e3530001 	cmp	r3, #1
    95ac:	0a000007 	beq	95d0 <data_abort_handler+0x4c>
    95b0:	e3530002 	cmp	r3, #2
    95b4:	0a000010 	beq	95fc <data_abort_handler+0x78>
    95b8:	e204400d 	and	r4, r4, #13
    95bc:	e354000d 	cmp	r4, #13
    95c0:	0a000008 	beq	95e8 <data_abort_handler+0x64>
    95c4:	e3e00000 	mvn	r0, #0
    95c8:	eb001063 	bl	d75c <exit>
    95cc:	e8fd903f 	ldm	sp!, {r0, r1, r2, r3, r4, r5, ip, pc}^
    95d0:	e30f0784 	movw	r0, #63364	@ 0xf784
    95d4:	e204400d 	and	r4, r4, #13
    95d8:	e3400000 	movt	r0, #0
    95dc:	eb0013a9 	bl	e488 <printk>
    95e0:	e354000d 	cmp	r4, #13
    95e4:	1afffff6 	bne	95c4 <data_abort_handler+0x40>
    95e8:	e30f07a8 	movw	r0, #63400	@ 0xf7a8
    95ec:	e1a01005 	mov	r1, r5
    95f0:	e3400000 	movt	r0, #0
    95f4:	eb0013a3 	bl	e488 <printk>
    95f8:	eafffff1 	b	95c4 <data_abort_handler+0x40>
    95fc:	e30f0798 	movw	r0, #63384	@ 0xf798
    9600:	e3400000 	movt	r0, #0
    9604:	eb00139f 	bl	e488 <printk>
    9608:	eaffffea 	b	95b8 <data_abort_handler+0x34>

0000960c <prefetch_abort_handler>:
    960c:	e24ee004 	sub	lr, lr, #4
    9610:	e92d503f 	push	{r0, r1, r2, r3, r4, r5, ip, lr}
    9614:	e30f07c8 	movw	r0, #63432	@ 0xf7c8
    9618:	e3400000 	movt	r0, #0
    961c:	e24e1004 	sub	r1, lr, #4
    9620:	eb001398 	bl	e488 <printk>
    9624:	ee154f30 	mrc	15, 0, r4, cr5, cr0, {1}
    9628:	ee165f50 	mrc	15, 0, r5, cr6, cr0, {2}
    962c:	e204300f 	and	r3, r4, #15
    9630:	e3530002 	cmp	r3, #2
    9634:	0a000005 	beq	9650 <prefetch_abort_handler+0x44>
    9638:	e204400d 	and	r4, r4, #13
    963c:	e354000d 	cmp	r4, #13
    9640:	0a000008 	beq	9668 <prefetch_abort_handler+0x5c>
    9644:	e3e00000 	mvn	r0, #0
    9648:	eb001043 	bl	d75c <exit>
    964c:	e8fd903f 	ldm	sp!, {r0, r1, r2, r3, r4, r5, ip, pc}^
    9650:	e30f0798 	movw	r0, #63384	@ 0xf798
    9654:	e204400d 	and	r4, r4, #13
    9658:	e3400000 	movt	r0, #0
    965c:	eb001389 	bl	e488 <printk>
    9660:	e354000d 	cmp	r4, #13
    9664:	1afffff6 	bne	9644 <prefetch_abort_handler+0x38>
    9668:	e30f07a8 	movw	r0, #63400	@ 0xf7a8
    966c:	e1a01005 	mov	r1, r5
    9670:	e3400000 	movt	r0, #0
    9674:	eb001383 	bl	e488 <printk>
    9678:	eafffff1 	b	9644 <prefetch_abort_handler+0x38>

0000967c <undef_handler>:
    967c:	e92d500f 	push	{r0, r1, r2, r3, ip, lr}
    9680:	e1a0100e 	mov	r1, lr
    9684:	e30f07e4 	movw	r0, #63460	@ 0xf7e4
    9688:	e5312004 	ldr	r2, [r1, #-4]!
    968c:	e3400000 	movt	r0, #0
    9690:	eb00137c 	bl	e488 <printk>
    9694:	e8fd900f 	ldm	sp!, {r0, r1, r2, r3, ip, pc}^

00009698 <interrupt_handler>:
    9698:	e24ee004 	sub	lr, lr, #4
    969c:	e59fd030 	ldr	sp, [pc, #48]	@ 96d4 <exit_interrupt+0x18>
    96a0:	e59dd000 	ldr	sp, [sp]
    96a4:	e8cd7fff 	stmia	sp, {r0, r1, r2, r3, r4, r5, r6, r7, r8, r9, sl, fp, ip, sp, lr}^
    96a8:	e58de03c 	str	lr, [sp, #60]	@ 0x3c
    96ac:	e14f0000 	mrs	r0, SPSR
    96b0:	e58d0040 	str	r0, [sp, #64]	@ 0x40
    96b4:	e28dda02 	add	sp, sp, #8192	@ 0x2000
    96b8:	ebffff6f 	bl	947c <interrupt_handler_c>

000096bc <exit_interrupt>:
    96bc:	e24dda02 	sub	sp, sp, #8192	@ 0x2000
    96c0:	e59d0040 	ldr	r0, [sp, #64]	@ 0x40
    96c4:	e16ff000 	msr	SPSR_fsxc, r0
    96c8:	e59de03c 	ldr	lr, [sp, #60]	@ 0x3c
    96cc:	e8dd7fff 	ldm	sp, {r0, r1, r2, r3, r4, r5, r6, r7, r8, r9, sl, fp, ip, sp, lr}^
    96d0:	e1b0f00e 	movs	pc, lr
    96d4:	00c44008 	sbceq	r4, r4, r8

000096d8 <gic400_init>:
    96d8:	e3a03a01 	mov	r3, #4096	@ 0x1000
    96dc:	e3a02000 	mov	r2, #0
    96e0:	e34f3f84 	movt	r3, #65412	@ 0xff84
    96e4:	e52de004 	push	{lr}		@ (str lr, [sp, #-4]!)
    96e8:	e5832000 	str	r2, [r3]
    96ec:	e3012004 	movw	r2, #4100	@ 0x1004
    96f0:	e34f2f84 	movt	r2, #65412	@ 0xff84
    96f4:	e5922000 	ldr	r2, [r2]
    96f8:	e304343c 	movw	r3, #17468	@ 0x443c
    96fc:	e202200f 	and	r2, r2, #15
    9700:	e3403003 	movt	r3, #3
    9704:	e3520000 	cmp	r2, #0
    9708:	e1a01282 	lsl	r1, r2, #5
    970c:	e5831000 	str	r1, [r3]
    9710:	0a000026 	beq	97b0 <gic400_init+0xd8>
    9714:	e3a0ce46 	mov	ip, #1120	@ 0x460
    9718:	e3a03d46 	mov	r3, #4480	@ 0x1180
    971c:	e343cfe1 	movt	ip, #16353	@ 0x3fe1
    9720:	e082c00c 	add	ip, r2, ip
    9724:	e3e02000 	mvn	r2, #0
    9728:	e34f3f84 	movt	r3, #65412	@ 0xff84
    972c:	e1a0c10c 	lsl	ip, ip, #2
    9730:	e5832000 	str	r2, [r3]
    9734:	e2830c01 	add	r0, r3, #256	@ 0x100
    9738:	e5802000 	str	r2, [r0]
    973c:	e2830c02 	add	r0, r3, #512	@ 0x200
    9740:	e5802000 	str	r2, [r0]
    9744:	e2833004 	add	r3, r3, #4
    9748:	e15c0003 	cmp	ip, r3
    974c:	1afffff7 	bne	9730 <gic400_init+0x58>
    9750:	e241087b 	sub	r0, r1, #8060928	@ 0x7b0000
    9754:	e3a03b05 	mov	r3, #5120	@ 0x1400
    9758:	e34f3f84 	movt	r3, #65412	@ 0xff84
    975c:	e30ae0a0 	movw	lr, #41120	@ 0xa0a0
    9760:	e34ae0a0 	movt	lr, #41120	@ 0xa0a0
    9764:	e300c101 	movw	ip, #257	@ 0x101
    9768:	e340c101 	movt	ip, #257	@ 0x101
    976c:	e2400b3b 	sub	r0, r0, #60416	@ 0xec00
    9770:	e583e000 	str	lr, [r3]
    9774:	e2832b01 	add	r2, r3, #1024	@ 0x400
    9778:	e582c000 	str	ip, [r2]
    977c:	e2833004 	add	r3, r3, #4
    9780:	e1500003 	cmp	r0, r3
    9784:	1afffff9 	bne	9770 <gic400_init+0x98>
    9788:	e1a02121 	lsr	r2, r1, #2
    978c:	e3a03b07 	mov	r3, #7168	@ 0x1c00
    9790:	e34f3f84 	movt	r3, #65412	@ 0xff84
    9794:	e242287b 	sub	r2, r2, #8060928	@ 0x7b0000
    9798:	e2422b39 	sub	r2, r2, #58368	@ 0xe400
    979c:	e3a01000 	mov	r1, #0
    97a0:	e5831000 	str	r1, [r3]
    97a4:	e2833004 	add	r3, r3, #4
    97a8:	e1520003 	cmp	r2, r3
    97ac:	1afffffb 	bne	97a0 <gic400_init+0xc8>
    97b0:	e3a03c11 	mov	r3, #4352	@ 0x1100
    97b4:	e3a02102 	mov	r2, #-2147483648	@ 0x80000000
    97b8:	e34f3f84 	movt	r3, #65412	@ 0xff84
    97bc:	e5832000 	str	r2, [r3]
    97c0:	e3a03a01 	mov	r3, #4096	@ 0x1000
    97c4:	e3a02001 	mov	r2, #1
    97c8:	e34f3f84 	movt	r3, #65412	@ 0xff84
    97cc:	e5832000 	str	r2, [r3]
    97d0:	e3023004 	movw	r3, #8196	@ 0x2004
    97d4:	e3a010f0 	mov	r1, #240	@ 0xf0
    97d8:	e34f3f84 	movt	r3, #65412	@ 0xff84
    97dc:	e5831000 	str	r1, [r3]
    97e0:	e3a03a02 	mov	r3, #8192	@ 0x2000
    97e4:	e34f3f84 	movt	r3, #65412	@ 0xff84
    97e8:	e5832000 	str	r2, [r3]
    97ec:	e3a00000 	mov	r0, #0
    97f0:	e49df004 	pop	{pc}		@ (ldr pc, [sp], #4)

000097f4 <swi_handler>:
    97f4:	e59fd034 	ldr	sp, [pc, #52]	@ 9830 <swi_handler+0x3c>
    97f8:	e59dd000 	ldr	sp, [sp]
    97fc:	e8cd7fff 	stmia	sp, {r0, r1, r2, r3, r4, r5, r6, r7, r8, r9, sl, fp, ip, sp, lr}^
    9800:	e58de03c 	str	lr, [sp, #60]	@ 0x3c
    9804:	e14fc000 	mrs	ip, SPSR
    9808:	e58dc040 	str	ip, [sp, #64]	@ 0x40
    980c:	e28dda02 	add	sp, sp, #8192	@ 0x2000
    9810:	eb000007 	bl	9834 <swi_handler_c>
    9814:	e24dda02 	sub	sp, sp, #8192	@ 0x2000
    9818:	e58d0000 	str	r0, [sp]
    981c:	e59d0040 	ldr	r0, [sp, #64]	@ 0x40
    9820:	e16ff000 	msr	SPSR_fsxc, r0
    9824:	e59de03c 	ldr	lr, [sp, #60]	@ 0x3c
    9828:	e8dd7fff 	ldm	sp, {r0, r1, r2, r3, r4, r5, r6, r7, r8, r9, sl, fp, ip, sp, lr}^
    982c:	e1b0f00e 	movs	pc, lr
    9830:	00c44008 	sbceq	r4, r4, r8

00009834 <swi_handler_c>:
    9834:	e357008d 	cmp	r7, #141	@ 0x8d
    9838:	e1a0c001 	mov	ip, r1
    983c:	e92d40b0 	push	{r4, r5, r7, lr}
    9840:	e1a04000 	mov	r4, r0
    9844:	ca000092 	bgt	9a94 <swi_handler_c+0x260>
    9848:	e3570000 	cmp	r7, #0
    984c:	da0000ca 	ble	9b7c <swi_handler_c+0x348>
    9850:	e2473001 	sub	r3, r7, #1
    9854:	e353008c 	cmp	r3, #140	@ 0x8c
    9858:	979ff103 	ldrls	pc, [pc, r3, lsl #2]
    985c:	ea0000c6 	b	9b7c <swi_handler_c+0x348>
    9860:	00009cb4 			@ <UNDEFINED> instruction: 0x00009cb4
    9864:	00009b7c 	andeq	r9, r0, ip, ror fp
    9868:	00009ca8 	andeq	r9, r0, r8, lsr #25
    986c:	00009cf4 	strdeq	r9, [r0], -r4
    9870:	00009d58 	andeq	r9, r0, r8, asr sp
    9874:	00009d4c 	andeq	r9, r0, ip, asr #26
    9878:	00009d34 	andeq	r9, r0, r4, lsr sp
    987c:	00009b7c 	andeq	r9, r0, ip, ror fp
    9880:	00009b7c 	andeq	r9, r0, ip, ror fp
    9884:	00009b7c 	andeq	r9, r0, ip, ror fp
    9888:	00009d0c 	andeq	r9, r0, ip, lsl #26
    988c:	00009d00 	andeq	r9, r0, r0, lsl #26
    9890:	00009c9c 	muleq	r0, ip, ip
    9894:	00009b7c 	andeq	r9, r0, ip, ror fp
    9898:	00009b7c 	andeq	r9, r0, ip, ror fp
    989c:	00009b7c 	andeq	r9, r0, ip, ror fp
    98a0:	00009b7c 	andeq	r9, r0, ip, ror fp
    98a4:	00009b7c 	andeq	r9, r0, ip, ror fp
    98a8:	00009b7c 	andeq	r9, r0, ip, ror fp
    98ac:	00009c88 	andeq	r9, r0, r8, lsl #25
    98b0:	00009b7c 	andeq	r9, r0, ip, ror fp
    98b4:	00009b7c 	andeq	r9, r0, ip, ror fp
    98b8:	00009b7c 	andeq	r9, r0, ip, ror fp
    98bc:	00009b7c 	andeq	r9, r0, ip, ror fp
    98c0:	00009b7c 	andeq	r9, r0, ip, ror fp
    98c4:	00009b7c 	andeq	r9, r0, ip, ror fp
    98c8:	00009b7c 	andeq	r9, r0, ip, ror fp
    98cc:	00009b7c 	andeq	r9, r0, ip, ror fp
    98d0:	00009b7c 	andeq	r9, r0, ip, ror fp
    98d4:	00009b7c 	andeq	r9, r0, ip, ror fp
    98d8:	00009b7c 	andeq	r9, r0, ip, ror fp
    98dc:	00009b7c 	andeq	r9, r0, ip, ror fp
    98e0:	00009b7c 	andeq	r9, r0, ip, ror fp
    98e4:	00009b7c 	andeq	r9, r0, ip, ror fp
    98e8:	00009b7c 	andeq	r9, r0, ip, ror fp
    98ec:	00009b7c 	andeq	r9, r0, ip, ror fp
    98f0:	00009b7c 	andeq	r9, r0, ip, ror fp
    98f4:	00009b7c 	andeq	r9, r0, ip, ror fp
    98f8:	00009b7c 	andeq	r9, r0, ip, ror fp
    98fc:	00009b7c 	andeq	r9, r0, ip, ror fp
    9900:	00009b7c 	andeq	r9, r0, ip, ror fp
    9904:	00009b7c 	andeq	r9, r0, ip, ror fp
    9908:	00009c7c 	andeq	r9, r0, ip, ror ip
    990c:	00009b7c 	andeq	r9, r0, ip, ror fp
    9910:	00009b7c 	andeq	r9, r0, ip, ror fp
    9914:	00009b7c 	andeq	r9, r0, ip, ror fp
    9918:	00009b7c 	andeq	r9, r0, ip, ror fp
    991c:	00009b7c 	andeq	r9, r0, ip, ror fp
    9920:	00009b7c 	andeq	r9, r0, ip, ror fp
    9924:	00009b7c 	andeq	r9, r0, ip, ror fp
    9928:	00009b7c 	andeq	r9, r0, ip, ror fp
    992c:	00009b7c 	andeq	r9, r0, ip, ror fp
    9930:	00009b7c 	andeq	r9, r0, ip, ror fp
    9934:	00009cbc 			@ <UNDEFINED> instruction: 0x00009cbc
    9938:	00009b7c 	andeq	r9, r0, ip, ror fp
    993c:	00009b7c 	andeq	r9, r0, ip, ror fp
    9940:	00009b7c 	andeq	r9, r0, ip, ror fp
    9944:	00009b7c 	andeq	r9, r0, ip, ror fp
    9948:	00009b7c 	andeq	r9, r0, ip, ror fp
    994c:	00009b7c 	andeq	r9, r0, ip, ror fp
    9950:	00009b7c 	andeq	r9, r0, ip, ror fp
    9954:	00009b7c 	andeq	r9, r0, ip, ror fp
    9958:	00009b7c 	andeq	r9, r0, ip, ror fp
    995c:	00009b7c 	andeq	r9, r0, ip, ror fp
    9960:	00009b7c 	andeq	r9, r0, ip, ror fp
    9964:	00009b7c 	andeq	r9, r0, ip, ror fp
    9968:	00009b7c 	andeq	r9, r0, ip, ror fp
    996c:	00009b7c 	andeq	r9, r0, ip, ror fp
    9970:	00009b7c 	andeq	r9, r0, ip, ror fp
    9974:	00009b7c 	andeq	r9, r0, ip, ror fp
    9978:	00009b7c 	andeq	r9, r0, ip, ror fp
    997c:	00009b7c 	andeq	r9, r0, ip, ror fp
    9980:	00009b7c 	andeq	r9, r0, ip, ror fp
    9984:	00009b7c 	andeq	r9, r0, ip, ror fp
    9988:	00009b7c 	andeq	r9, r0, ip, ror fp
    998c:	00009b7c 	andeq	r9, r0, ip, ror fp
    9990:	00009b7c 	andeq	r9, r0, ip, ror fp
    9994:	00009b7c 	andeq	r9, r0, ip, ror fp
    9998:	00009b7c 	andeq	r9, r0, ip, ror fp
    999c:	00009b7c 	andeq	r9, r0, ip, ror fp
    99a0:	00009b7c 	andeq	r9, r0, ip, ror fp
    99a4:	00009b7c 	andeq	r9, r0, ip, ror fp
    99a8:	00009b7c 	andeq	r9, r0, ip, ror fp
    99ac:	00009b7c 	andeq	r9, r0, ip, ror fp
    99b0:	00009b7c 	andeq	r9, r0, ip, ror fp
    99b4:	00009b7c 	andeq	r9, r0, ip, ror fp
    99b8:	00009b7c 	andeq	r9, r0, ip, ror fp
    99bc:	00009d7c 	andeq	r9, r0, ip, ror sp
    99c0:	00009b7c 	andeq	r9, r0, ip, ror fp
    99c4:	00009b7c 	andeq	r9, r0, ip, ror fp
    99c8:	00009b7c 	andeq	r9, r0, ip, ror fp
    99cc:	00009b7c 	andeq	r9, r0, ip, ror fp
    99d0:	00009b7c 	andeq	r9, r0, ip, ror fp
    99d4:	00009b7c 	andeq	r9, r0, ip, ror fp
    99d8:	00009b7c 	andeq	r9, r0, ip, ror fp
    99dc:	00009b7c 	andeq	r9, r0, ip, ror fp
    99e0:	00009b7c 	andeq	r9, r0, ip, ror fp
    99e4:	00009b7c 	andeq	r9, r0, ip, ror fp
    99e8:	00009d70 	andeq	r9, r0, r0, ror sp
    99ec:	00009b7c 	andeq	r9, r0, ip, ror fp
    99f0:	00009b7c 	andeq	r9, r0, ip, ror fp
    99f4:	00009b7c 	andeq	r9, r0, ip, ror fp
    99f8:	00009b7c 	andeq	r9, r0, ip, ror fp
    99fc:	00009b7c 	andeq	r9, r0, ip, ror fp
    9a00:	00009b7c 	andeq	r9, r0, ip, ror fp
    9a04:	00009d64 	andeq	r9, r0, r4, ror #26
    9a08:	00009b7c 	andeq	r9, r0, ip, ror fp
    9a0c:	00009b7c 	andeq	r9, r0, ip, ror fp
    9a10:	00009b7c 	andeq	r9, r0, ip, ror fp
    9a14:	00009b7c 	andeq	r9, r0, ip, ror fp
    9a18:	00009b7c 	andeq	r9, r0, ip, ror fp
    9a1c:	00009b7c 	andeq	r9, r0, ip, ror fp
    9a20:	00009b7c 	andeq	r9, r0, ip, ror fp
    9a24:	00009b7c 	andeq	r9, r0, ip, ror fp
    9a28:	00009b7c 	andeq	r9, r0, ip, ror fp
    9a2c:	00009ce8 	andeq	r9, r0, r8, ror #25
    9a30:	00009b7c 	andeq	r9, r0, ip, ror fp
    9a34:	00009b7c 	andeq	r9, r0, ip, ror fp
    9a38:	00009b7c 	andeq	r9, r0, ip, ror fp
    9a3c:	00009b7c 	andeq	r9, r0, ip, ror fp
    9a40:	00009b7c 	andeq	r9, r0, ip, ror fp
    9a44:	00009cdc 	ldrdeq	r9, [r0], -ip
    9a48:	00009b7c 	andeq	r9, r0, ip, ror fp
    9a4c:	00009b7c 	andeq	r9, r0, ip, ror fp
    9a50:	00009b7c 	andeq	r9, r0, ip, ror fp
    9a54:	00009b7c 	andeq	r9, r0, ip, ror fp
    9a58:	00009b7c 	andeq	r9, r0, ip, ror fp
    9a5c:	00009b7c 	andeq	r9, r0, ip, ror fp
    9a60:	00009b7c 	andeq	r9, r0, ip, ror fp
    9a64:	00009b7c 	andeq	r9, r0, ip, ror fp
    9a68:	00009b7c 	andeq	r9, r0, ip, ror fp
    9a6c:	00009b7c 	andeq	r9, r0, ip, ror fp
    9a70:	00009b7c 	andeq	r9, r0, ip, ror fp
    9a74:	00009b7c 	andeq	r9, r0, ip, ror fp
    9a78:	00009b7c 	andeq	r9, r0, ip, ror fp
    9a7c:	00009b7c 	andeq	r9, r0, ip, ror fp
    9a80:	00009b7c 	andeq	r9, r0, ip, ror fp
    9a84:	00009b7c 	andeq	r9, r0, ip, ror fp
    9a88:	00009b7c 	andeq	r9, r0, ip, ror fp
    9a8c:	00009b7c 	andeq	r9, r0, ip, ror fp
    9a90:	00009c70 	andeq	r9, r0, r0, ror ip
    9a94:	e302e009 	movw	lr, #8201	@ 0x2009
    9a98:	e157000e 	cmp	r7, lr
    9a9c:	ca000020 	bgt	9b24 <swi_handler_c+0x2f0>
    9aa0:	e3570a02 	cmp	r7, #8192	@ 0x2000
    9aa4:	aa000010 	bge	9aec <swi_handler_c+0x2b8>
    9aa8:	e35700be 	cmp	r7, #190	@ 0xbe
    9aac:	0a0000bd 	beq	9da8 <swi_handler_c+0x574>
    9ab0:	da000006 	ble	9ad0 <swi_handler_c+0x29c>
    9ab4:	e3003107 	movw	r3, #263	@ 0x107
    9ab8:	e1570003 	cmp	r7, r3
    9abc:	1a00002e 	bne	9b7c <swi_handler_c+0x348>
    9ac0:	eb0010e1 	bl	de4c <clock_gettime>
    9ac4:	e1a07000 	mov	r7, r0
    9ac8:	e1a00007 	mov	r0, r7
    9acc:	e8bd80b0 	pop	{r4, r5, r7, pc}
    9ad0:	e35700a2 	cmp	r7, #162	@ 0xa2
    9ad4:	0a0000b6 	beq	9db4 <swi_handler_c+0x580>
    9ad8:	e35700b7 	cmp	r7, #183	@ 0xb7
    9adc:	1a000026 	bne	9b7c <swi_handler_c+0x348>
    9ae0:	eb000207 	bl	a304 <getcwd>
    9ae4:	e1a07000 	mov	r7, r0
    9ae8:	eafffff6 	b	9ac8 <swi_handler_c+0x294>
    9aec:	e2471a02 	sub	r1, r7, #8192	@ 0x2000
    9af0:	e3510009 	cmp	r1, #9
    9af4:	979ff101 	ldrls	pc, [pc, r1, lsl #2]
    9af8:	ea00001f 	b	9b7c <swi_handler_c+0x348>
    9afc:	00009c4c 	andeq	r9, r0, ip, asr #24
    9b00:	00009c40 	andeq	r9, r0, r0, asr #24
    9b04:	00009c34 	andeq	r9, r0, r4, lsr ip
    9b08:	00009b7c 	andeq	r9, r0, ip, ror fp
    9b0c:	00009b7c 	andeq	r9, r0, ip, ror fp
    9b10:	00009b7c 	andeq	r9, r0, ip, ror fp
    9b14:	00009b7c 	andeq	r9, r0, ip, ror fp
    9b18:	00009b7c 	andeq	r9, r0, ip, ror fp
    9b1c:	00009c20 	andeq	r9, r0, r0, lsr #24
    9b20:	00009c10 	andeq	r9, r0, r0, lsl ip
    9b24:	e3021070 	movw	r1, #8304	@ 0x2070
    9b28:	e1570001 	cmp	r7, r1
    9b2c:	ca00000b 	bgt	9b60 <swi_handler_c+0x32c>
    9b30:	e302106b 	movw	r1, #8299	@ 0x206b
    9b34:	e1570001 	cmp	r7, r1
    9b38:	da00000f 	ble	9b7c <swi_handler_c+0x348>
    9b3c:	e2477d81 	sub	r7, r7, #8256	@ 0x2040
    9b40:	e247702d 	sub	r7, r7, #45	@ 0x2d
    9b44:	e3570003 	cmp	r7, #3
    9b48:	979ff107 	ldrls	pc, [pc, r7, lsl #2]
    9b4c:	ea0000a3 	b	9de0 <swi_handler_c+0x5ac>
    9b50:	00009bc8 	andeq	r9, r0, r8, asr #23
    9b54:	00009bb4 			@ <UNDEFINED> instruction: 0x00009bb4
    9b58:	00009b90 	muleq	r0, r0, fp
    9b5c:	00009bf0 	strdeq	r9, [r0], -r0
    9b60:	e2473d83 	sub	r3, r7, #8384	@ 0x20c0
    9b64:	e2433010 	sub	r3, r3, #16
    9b68:	e3530002 	cmp	r3, #2
    9b6c:	8a000002 	bhi	9b7c <swi_handler_c+0x348>
    9b70:	e3a07000 	mov	r7, #0
    9b74:	e1a00007 	mov	r0, r7
    9b78:	e8bd80b0 	pop	{r4, r5, r7, pc}
    9b7c:	e30f08d4 	movw	r0, #63700	@ 0xf8d4
    9b80:	e1a01007 	mov	r1, r7
    9b84:	e3400000 	movt	r0, #0
    9b88:	eb00123e 	bl	e488 <printk>
    9b8c:	eafffff7 	b	9b70 <swi_handler_c+0x33c>
    9b90:	e1a00004 	mov	r0, r4
    9b94:	eb0004c3 	bl	aea8 <framebuffer_clear_screen>
    9b98:	e2507000 	subs	r7, r0, #0
    9b9c:	0afffff3 	beq	9b70 <swi_handler_c+0x33c>
    9ba0:	e30f0894 	movw	r0, #63636	@ 0xf894
    9ba4:	e1a01007 	mov	r1, r7
    9ba8:	e3400000 	movt	r0, #0
    9bac:	eb001235 	bl	e488 <printk>
    9bb0:	eaffffc4 	b	9ac8 <swi_handler_c+0x294>
    9bb4:	e1a0100c 	mov	r1, ip
    9bb8:	e1a00004 	mov	r0, r4
    9bbc:	eb00049d 	bl	ae38 <framebuffer_vline>
    9bc0:	e1a07000 	mov	r7, r0
    9bc4:	eaffffbf 	b	9ac8 <swi_handler_c+0x294>
    9bc8:	e1a0100c 	mov	r1, ip
    9bcc:	e1a00004 	mov	r0, r4
    9bd0:	eb00047b 	bl	adc4 <framebuffer_hline>
    9bd4:	e2507000 	subs	r7, r0, #0
    9bd8:	0affffe4 	beq	9b70 <swi_handler_c+0x33c>
    9bdc:	e30f0878 	movw	r0, #63608	@ 0xf878
    9be0:	e1a01007 	mov	r1, r7
    9be4:	e3400000 	movt	r0, #0
    9be8:	eb001226 	bl	e488 <printk>
    9bec:	eaffffb5 	b	9ac8 <swi_handler_c+0x294>
    9bf0:	eb0004e4 	bl	af88 <framebuffer_push>
    9bf4:	e2507000 	subs	r7, r0, #0
    9bf8:	0affffdc 	beq	9b70 <swi_handler_c+0x33c>
    9bfc:	e30f08b8 	movw	r0, #63672	@ 0xf8b8
    9c00:	e1a01007 	mov	r1, r7
    9c04:	e3400000 	movt	r0, #0
    9c08:	eb00121e 	bl	e488 <printk>
    9c0c:	eaffffad 	b	9ac8 <swi_handler_c+0x294>
    9c10:	e1a00004 	mov	r0, r4
    9c14:	eb000b98 	bl	ca7c <memory_allocate>
    9c18:	e1a07000 	mov	r7, r0
    9c1c:	eaffffa9 	b	9ac8 <swi_handler_c+0x294>
    9c20:	e1a0100c 	mov	r1, ip
    9c24:	e1a00004 	mov	r0, r4
    9c28:	eb0004f0 	bl	aff0 <framebuffer_load>
    9c2c:	e1a07000 	mov	r7, r0
    9c30:	eaffffa4 	b	9ac8 <swi_handler_c+0x294>
    9c34:	eb0004e0 	bl	afbc <framebuffer_gradient>
    9c38:	e1a07000 	mov	r7, r0
    9c3c:	eaffffa1 	b	9ac8 <swi_handler_c+0x294>
    9c40:	e2440030 	sub	r0, r4, #48	@ 0x30
    9c44:	eb00059c 	bl	b2bc <framebuffer_console_setfont>
    9c48:	eaffffc8 	b	9b70 <swi_handler_c+0x33c>
    9c4c:	e3540000 	cmp	r4, #0
    9c50:	1a00005a 	bne	9dc0 <swi_handler_c+0x58c>
    9c54:	e30f0834 	movw	r0, #63540	@ 0xf834
    9c58:	e3400000 	movt	r0, #0
    9c5c:	eb001209 	bl	e488 <printk>
    9c60:	e302301c 	movw	r3, #8220	@ 0x201c
    9c64:	e3403003 	movt	r3, #3
    9c68:	e5834000 	str	r4, [r3]
    9c6c:	eaffffbf 	b	9b70 <swi_handler_c+0x33c>
    9c70:	eb00016f 	bl	a234 <getdents>
    9c74:	e1a07000 	mov	r7, r0
    9c78:	eaffff92 	b	9ac8 <swi_handler_c+0x294>
    9c7c:	eb000097 	bl	9ee0 <times>
    9c80:	e1a07000 	mov	r7, r0
    9c84:	eaffff8f 	b	9ac8 <swi_handler_c+0x294>
    9c88:	e3043008 	movw	r3, #16392	@ 0x4008
    9c8c:	e34030c4 	movt	r3, #196	@ 0xc4
    9c90:	e5933000 	ldr	r3, [r3]
    9c94:	e59370a8 	ldr	r7, [r3, #168]	@ 0xa8
    9c98:	eaffff8a 	b	9ac8 <swi_handler_c+0x294>
    9c9c:	eb001061 	bl	de28 <time_since_boot>
    9ca0:	e1a07000 	mov	r7, r0
    9ca4:	eaffff87 	b	9ac8 <swi_handler_c+0x294>
    9ca8:	eb000106 	bl	a0c8 <read>
    9cac:	e1a07000 	mov	r7, r0
    9cb0:	eaffff84 	b	9ac8 <swi_handler_c+0x294>
    9cb4:	eb000ea8 	bl	d75c <exit>
    9cb8:	eaffffac 	b	9b70 <swi_handler_c+0x33c>
    9cbc:	e30f080c 	movw	r0, #63500	@ 0xf80c
    9cc0:	e1a03002 	mov	r3, r2
    9cc4:	e3400000 	movt	r0, #0
    9cc8:	e1a02001 	mov	r2, r1
    9ccc:	e1a01004 	mov	r1, r4
    9cd0:	eb0011ec 	bl	e488 <printk>
    9cd4:	e3e07000 	mvn	r7, #0
    9cd8:	eaffff7a 	b	9ac8 <swi_handler_c+0x294>
    9cdc:	eb00008a 	bl	9f0c <uname>
    9ce0:	e1a07000 	mov	r7, r0
    9ce4:	eaffff77 	b	9ac8 <swi_handler_c+0x294>
    9ce8:	eb00005d 	bl	9e64 <sysinfo>
    9cec:	e1a07000 	mov	r7, r0
    9cf0:	eaffff74 	b	9ac8 <swi_handler_c+0x294>
    9cf4:	eb000117 	bl	a158 <write>
    9cf8:	e1a07000 	mov	r7, r0
    9cfc:	eaffff71 	b	9ac8 <swi_handler_c+0x294>
    9d00:	eb000167 	bl	a2a4 <chdir>
    9d04:	e1a07000 	mov	r7, r0
    9d08:	eaffff6e 	b	9ac8 <swi_handler_c+0x294>
    9d0c:	eb000db1 	bl	d3d8 <execve>
    9d10:	e3043008 	movw	r3, #16392	@ 0x4008
    9d14:	e3a02001 	mov	r2, #1
    9d18:	e34030c4 	movt	r3, #196	@ 0xc4
    9d1c:	e1a07000 	mov	r7, r0
    9d20:	e5933000 	ldr	r3, [r3]
    9d24:	e59330b0 	ldr	r3, [r3, #176]	@ 0xb0
    9d28:	e5832098 	str	r2, [r3, #152]	@ 0x98
    9d2c:	eb000ecd 	bl	d868 <schedule>
    9d30:	eaffff64 	b	9ac8 <swi_handler_c+0x294>
    9d34:	e3043008 	movw	r3, #16392	@ 0x4008
    9d38:	e34030c4 	movt	r3, #196	@ 0xc4
    9d3c:	e5933000 	ldr	r3, [r3]
    9d40:	eb000f5c 	bl	dab8 <waitpid>
    9d44:	e1a07000 	mov	r7, r0
    9d48:	eaffff5e 	b	9ac8 <swi_handler_c+0x294>
    9d4c:	eb0000d3 	bl	a0a0 <close>
    9d50:	e1a07000 	mov	r7, r0
    9d54:	eaffff5b 	b	9ac8 <swi_handler_c+0x294>
    9d58:	eb0000d2 	bl	a0a8 <open>
    9d5c:	e1a07000 	mov	r7, r0
    9d60:	eaffff58 	b	9ac8 <swi_handler_c+0x294>
    9d64:	eb000109 	bl	a190 <stat>
    9d68:	e1a07000 	mov	r7, r0
    9d6c:	eaffff55 	b	9ac8 <swi_handler_c+0x294>
    9d70:	eb000175 	bl	a34c <statfs>
    9d74:	e1a07000 	mov	r7, r0
    9d78:	eaffff52 	b	9ac8 <swi_handler_c+0x294>
    9d7c:	e3a01001 	mov	r1, #1
    9d80:	e3a00024 	mov	r0, #36	@ 0x24
    9d84:	e3451a00 	movt	r1, #23040	@ 0x5a00
    9d88:	e3400010 	movt	r0, #16
    9d8c:	eb00030b 	bl	a9c0 <bcm2835_write>
    9d90:	e3a01020 	mov	r1, #32
    9d94:	e3a0001c 	mov	r0, #28
    9d98:	e3451a00 	movt	r1, #23040	@ 0x5a00
    9d9c:	e3400010 	movt	r0, #16
    9da0:	eb000306 	bl	a9c0 <bcm2835_write>
    9da4:	eaffffca 	b	9cd4 <swi_handler_c+0x4a0>
    9da8:	eb000f13 	bl	d9fc <vfork>
    9dac:	e1a07000 	mov	r7, r0
    9db0:	eaffff44 	b	9ac8 <swi_handler_c+0x294>
    9db4:	eb000013 	bl	9e08 <nanosleep>
    9db8:	e1a07000 	mov	r7, r0
    9dbc:	eaffff41 	b	9ac8 <swi_handler_c+0x294>
    9dc0:	e30f0848 	movw	r0, #63560	@ 0xf848
    9dc4:	e3400000 	movt	r0, #0
    9dc8:	eb0011ae 	bl	e488 <printk>
    9dcc:	e302301c 	movw	r3, #8220	@ 0x201c
    9dd0:	e3a02001 	mov	r2, #1
    9dd4:	e3403003 	movt	r3, #3
    9dd8:	e5832000 	str	r2, [r3]
    9ddc:	eaffff63 	b	9b70 <swi_handler_c+0x33c>
    9de0:	e1a0100c 	mov	r1, ip
    9de4:	e1a00004 	mov	r0, r4
    9de8:	eb000455 	bl	af44 <framebuffer_putpixel>
    9dec:	e2507000 	subs	r7, r0, #0
    9df0:	0affff5e 	beq	9b70 <swi_handler_c+0x33c>
    9df4:	e30f0858 	movw	r0, #63576	@ 0xf858
    9df8:	e1a01007 	mov	r1, r7
    9dfc:	e3400000 	movt	r0, #0
    9e00:	eb0011a0 	bl	e488 <printk>
    9e04:	eaffff2f 	b	9ac8 <swi_handler_c+0x294>

00009e08 <nanosleep>:
    9e08:	e5903004 	ldr	r3, [r0, #4]
    9e0c:	e30d1e83 	movw	r1, #56963	@ 0xde83
    9e10:	e344131b 	movt	r1, #17179	@ 0x431b
    9e14:	e3042dd3 	movw	r2, #19923	@ 0x4dd3
    9e18:	e0831391 	umull	r1, r3, r1, r3
    9e1c:	e3412062 	movt	r2, #4194	@ 0x1062
    9e20:	e1a03923 	lsr	r3, r3, #18
    9e24:	e92d4010 	push	{r4, lr}
    9e28:	e1a03303 	lsl	r3, r3, #6
    9e2c:	e5904000 	ldr	r4, [r0]
    9e30:	e0832392 	umull	r2, r3, r2, r3
    9e34:	e1a04304 	lsl	r4, r4, #6
    9e38:	e0844323 	add	r4, r4, r3, lsr #6
    9e3c:	eb000ffe 	bl	de3c <ticks_since_boot>
    9e40:	e0844000 	add	r4, r4, r0
    9e44:	ea000000 	b	9e4c <nanosleep+0x44>
    9e48:	eb0007f0 	bl	be10 <timer_sleep_until>
    9e4c:	eb000ffa 	bl	de3c <ticks_since_boot>
    9e50:	e1500004 	cmp	r0, r4
    9e54:	e1a00004 	mov	r0, r4
    9e58:	9afffffa 	bls	9e48 <nanosleep+0x40>
    9e5c:	e3a00000 	mov	r0, #0
    9e60:	e8bd8010 	pop	{r4, pc}

00009e64 <sysinfo>:
    9e64:	e92d4010 	push	{r4, lr}
    9e68:	e3a02040 	mov	r2, #64	@ 0x40
    9e6c:	e24dd008 	sub	sp, sp, #8
    9e70:	e3a01000 	mov	r1, #0
    9e74:	e1a04000 	mov	r4, r0
    9e78:	eb00104d 	bl	dfb4 <memset>
    9e7c:	eb000fee 	bl	de3c <ticks_since_boot>
    9e80:	e1a00320 	lsr	r0, r0, #6
    9e84:	e5840000 	str	r0, [r4]
    9e88:	eb000b55 	bl	cbe4 <memory_get_total>
    9e8c:	e5840010 	str	r0, [r4, #16]
    9e90:	eb000ae4 	bl	ca28 <memory_total_free>
    9e94:	e5840014 	str	r0, [r4, #20]
    9e98:	e28d1004 	add	r1, sp, #4
    9e9c:	e3a00001 	mov	r0, #1
    9ea0:	eb000c8a 	bl	d0d0 <process_get_totals>
    9ea4:	e59d2004 	ldr	r2, [sp, #4]
    9ea8:	e3043000 	movw	r3, #16384	@ 0x4000
    9eac:	e34030c4 	movt	r3, #196	@ 0xc4
    9eb0:	e5842038 	str	r2, [r4, #56]	@ 0x38
    9eb4:	e5933000 	ldr	r3, [r3]
    9eb8:	e5840028 	str	r0, [r4, #40]	@ 0x28
    9ebc:	e3a00000 	mov	r0, #0
    9ec0:	e59320a4 	ldr	r2, [r3, #164]	@ 0xa4
    9ec4:	e1520000 	cmp	r2, r0
    9ec8:	e282303f 	add	r3, r2, #63	@ 0x3f
    9ecc:	a1a03002 	movge	r3, r2
    9ed0:	e1a03343 	asr	r3, r3, #6
    9ed4:	e584303c 	str	r3, [r4, #60]	@ 0x3c
    9ed8:	e28dd008 	add	sp, sp, #8
    9edc:	e8bd8010 	pop	{r4, pc}

00009ee0 <times>:
    9ee0:	e3042008 	movw	r2, #16392	@ 0x4008
    9ee4:	e1a03000 	mov	r3, r0
    9ee8:	e34020c4 	movt	r2, #196	@ 0xc4
    9eec:	e3a00000 	mov	r0, #0
    9ef0:	e5922000 	ldr	r2, [r2]
    9ef4:	e59220a4 	ldr	r2, [r2, #164]	@ 0xa4
    9ef8:	e5830004 	str	r0, [r3, #4]
    9efc:	e5830008 	str	r0, [r3, #8]
    9f00:	e5832000 	str	r2, [r3]
    9f04:	e583000c 	str	r0, [r3, #12]
    9f08:	e12fff1e 	bx	lr

00009f0c <uname>:
    9f0c:	e30f18e8 	movw	r1, #63720	@ 0xf8e8
    9f10:	e3a02041 	mov	r2, #65	@ 0x41
    9f14:	e92d4010 	push	{r4, lr}
    9f18:	e1a04000 	mov	r4, r0
    9f1c:	e3401000 	movt	r1, #0
    9f20:	eb0011c3 	bl	e634 <strlcpy>
    9f24:	e3a02041 	mov	r2, #65	@ 0x41
    9f28:	e30f18f0 	movw	r1, #63728	@ 0xf8f0
    9f2c:	e0840002 	add	r0, r4, r2
    9f30:	e3401000 	movt	r1, #0
    9f34:	eb0011be 	bl	e634 <strlcpy>
    9f38:	e30f1190 	movw	r1, #61840	@ 0xf190
    9f3c:	e3a02041 	mov	r2, #65	@ 0x41
    9f40:	e3401000 	movt	r1, #0
    9f44:	e2840082 	add	r0, r4, #130	@ 0x82
    9f48:	eb0011b9 	bl	e634 <strlcpy>
    9f4c:	e30f18f4 	movw	r1, #63732	@ 0xf8f4
    9f50:	e3a02041 	mov	r2, #65	@ 0x41
    9f54:	e3401000 	movt	r1, #0
    9f58:	e28400c3 	add	r0, r4, #195	@ 0xc3
    9f5c:	eb0011b4 	bl	e634 <strlcpy>
    9f60:	e30f1914 	movw	r1, #63764	@ 0xf914
    9f64:	e3a02041 	mov	r2, #65	@ 0x41
    9f68:	e3401000 	movt	r1, #0
    9f6c:	e2840f41 	add	r0, r4, #260	@ 0x104
    9f70:	eb0011af 	bl	e634 <strlcpy>
    9f74:	e2840f51 	add	r0, r4, #324	@ 0x144
    9f78:	e30f191c 	movw	r1, #63772	@ 0xf91c
    9f7c:	e3401000 	movt	r1, #0
    9f80:	e3a02041 	mov	r2, #65	@ 0x41
    9f84:	e2800001 	add	r0, r0, #1
    9f88:	eb0011a9 	bl	e634 <strlcpy>
    9f8c:	e3a00000 	mov	r0, #0
    9f90:	e8bd8010 	pop	{r4, pc}

00009f94 <fd_free>:
    9f94:	e3e00008 	mvn	r0, #8
    9f98:	e12fff1e 	bx	lr

00009f9c <fd_allocate>:
    9f9c:	e3041440 	movw	r1, #17472	@ 0x4440
    9fa0:	e3a0c00c 	mov	ip, #12
    9fa4:	e52de004 	push	{lr}		@ (str lr, [sp, #-4]!)
    9fa8:	e1a0e000 	mov	lr, r0
    9fac:	e3401003 	movt	r1, #3
    9fb0:	e3a00000 	mov	r0, #0
    9fb4:	ea000002 	b	9fc4 <fd_allocate+0x28>
    9fb8:	e2800001 	add	r0, r0, #1
    9fbc:	e3500020 	cmp	r0, #32
    9fc0:	0a000009 	beq	9fec <fd_allocate+0x50>
    9fc4:	e003009c 	mul	r3, ip, r0
    9fc8:	e7912003 	ldr	r2, [r1, r3]
    9fcc:	e3520000 	cmp	r2, #0
    9fd0:	1afffff8 	bne	9fb8 <fd_allocate+0x1c>
    9fd4:	e081c003 	add	ip, r1, r3
    9fd8:	e58c2008 	str	r2, [ip, #8]
    9fdc:	e3a02001 	mov	r2, #1
    9fe0:	e58ce004 	str	lr, [ip, #4]
    9fe4:	e7812003 	str	r2, [r1, r3]
    9fe8:	e49df004 	pop	{pc}		@ (ldr pc, [sp], #4)
    9fec:	e3e00016 	mvn	r0, #22
    9ff0:	e49df004 	pop	{pc}		@ (ldr pc, [sp], #4)

00009ff4 <get_inode>:
    9ff4:	e92d4070 	push	{r4, r5, r6, lr}
    9ff8:	e1a04000 	mov	r4, r0
    9ffc:	e5d03000 	ldrb	r3, [r0]
    a000:	e24ddc01 	sub	sp, sp, #256	@ 0x100
    a004:	e353002f 	cmp	r3, #47	@ 0x2f
    a008:	13042008 	movwne	r2, #16392	@ 0x4008
    a00c:	03042440 	movweq	r2, #17472	@ 0x4440
    a010:	134020c4 	movtne	r2, #196	@ 0xc4
    a014:	02804001 	addeq	r4, r0, #1
    a018:	05d03001 	ldrbeq	r3, [r0, #1]
    a01c:	03402003 	movteq	r2, #3
    a020:	15922000 	ldrne	r2, [r2]
    a024:	05920180 	ldreq	r0, [r2, #384]	@ 0x180
    a028:	159200b4 	ldrne	r0, [r2, #180]	@ 0xb4
    a02c:	e3530000 	cmp	r3, #0
    a030:	13a06000 	movne	r6, #0
    a034:	0a000017 	beq	a098 <get_inode+0xa4>
    a038:	e28410ff 	add	r1, r4, #255	@ 0xff
    a03c:	e1a0200d 	mov	r2, sp
    a040:	ea000005 	b	a05c <get_inode+0x68>
    a044:	e4c23001 	strb	r3, [r2], #1
    a048:	e5d43000 	ldrb	r3, [r4]
    a04c:	e3530000 	cmp	r3, #0
    a050:	0a00000c 	beq	a088 <get_inode+0x94>
    a054:	e1510004 	cmp	r1, r4
    a058:	0a00000a 	beq	a088 <get_inode+0x94>
    a05c:	e353002f 	cmp	r3, #47	@ 0x2f
    a060:	e1a05004 	mov	r5, r4
    a064:	e2844001 	add	r4, r4, #1
    a068:	1afffff5 	bne	a044 <get_inode+0x50>
    a06c:	e5c26000 	strb	r6, [r2]
    a070:	e1a0100d 	mov	r1, sp
    a074:	eb000107 	bl	a498 <romfs_get_inode>
    a078:	e5d53001 	ldrb	r3, [r5, #1]
    a07c:	e3530000 	cmp	r3, #0
    a080:	1affffec 	bne	a038 <get_inode+0x44>
    a084:	e1a0200d 	mov	r2, sp
    a088:	e3a03000 	mov	r3, #0
    a08c:	e1a0100d 	mov	r1, sp
    a090:	e5c23000 	strb	r3, [r2]
    a094:	eb0000ff 	bl	a498 <romfs_get_inode>
    a098:	e28ddc01 	add	sp, sp, #256	@ 0x100
    a09c:	e8bd8070 	pop	{r4, r5, r6, pc}

0000a0a0 <close>:
    a0a0:	e3e00008 	mvn	r0, #8
    a0a4:	e12fff1e 	bx	lr

0000a0a8 <open>:
    a0a8:	e92d4010 	push	{r4, lr}
    a0ac:	ebffffd0 	bl	9ff4 <get_inode>
    a0b0:	e3500000 	cmp	r0, #0
    a0b4:	ba000001 	blt	a0c0 <open+0x18>
    a0b8:	e8bd4010 	pop	{r4, lr}
    a0bc:	eaffffb6 	b	9f9c <fd_allocate>
    a0c0:	e3e00001 	mvn	r0, #1
    a0c4:	e8bd8010 	pop	{r4, pc}

0000a0c8 <read>:
    a0c8:	e250c000 	subs	ip, r0, #0
    a0cc:	e1a03002 	mov	r3, r2
    a0d0:	e92d4010 	push	{r4, lr}
    a0d4:	e1a0e001 	mov	lr, r1
    a0d8:	0a000012 	beq	a128 <read+0x60>
    a0dc:	e35c001f 	cmp	ip, #31
    a0e0:	8a000014 	bhi	a138 <read+0x70>
    a0e4:	e3041440 	movw	r1, #17472	@ 0x4440
    a0e8:	e3a0200c 	mov	r2, #12
    a0ec:	e3401003 	movt	r1, #3
    a0f0:	e0020c92 	mul	r2, r2, ip
    a0f4:	e7910002 	ldr	r0, [r1, r2]
    a0f8:	e0814002 	add	r4, r1, r2
    a0fc:	e3500000 	cmp	r0, #0
    a100:	0a00000e 	beq	a140 <read+0x78>
    a104:	e1c400d4 	ldrd	r0, [r4, #4]
    a108:	e1a0200e 	mov	r2, lr
    a10c:	eb000191 	bl	a758 <romfs_read_file>
    a110:	e3500000 	cmp	r0, #0
    a114:	d8bd8010 	pople	{r4, pc}
    a118:	e5943008 	ldr	r3, [r4, #8]
    a11c:	e0833000 	add	r3, r3, r0
    a120:	e5843008 	str	r3, [r4, #8]
    a124:	e8bd8010 	pop	{r4, pc}
    a128:	e1a0000e 	mov	r0, lr
    a12c:	e1a01002 	mov	r1, r2
    a130:	e8bd4010 	pop	{r4, lr}
    a134:	ea00027a 	b	ab24 <console_read>
    a138:	e3e00016 	mvn	r0, #22
    a13c:	e8bd8010 	pop	{r4, pc}
    a140:	e30f0924 	movw	r0, #63780	@ 0xf924
    a144:	e1a0100c 	mov	r1, ip
    a148:	e3400000 	movt	r0, #0
    a14c:	eb0010cd 	bl	e488 <printk>
    a150:	e3e00008 	mvn	r0, #8
    a154:	e8bd8010 	pop	{r4, pc}

0000a158 <write>:
    a158:	e240c001 	sub	ip, r0, #1
    a15c:	e35c0001 	cmp	ip, #1
    a160:	8a000002 	bhi	a170 <write+0x18>
    a164:	e1a00001 	mov	r0, r1
    a168:	e1a01002 	mov	r1, r2
    a16c:	ea000264 	b	ab04 <console_write>
    a170:	e1a03000 	mov	r3, r0
    a174:	e30f0950 	movw	r0, #63824	@ 0xf950
    a178:	e3400000 	movt	r0, #0
    a17c:	e1a01003 	mov	r1, r3
    a180:	e92d4010 	push	{r4, lr}
    a184:	eb0010bf 	bl	e488 <printk>
    a188:	e3e00008 	mvn	r0, #8
    a18c:	e8bd8010 	pop	{r4, pc}

0000a190 <stat>:
    a190:	e92d4010 	push	{r4, lr}
    a194:	e1a04001 	mov	r4, r1
    a198:	ebffff95 	bl	9ff4 <get_inode>
    a19c:	e3500000 	cmp	r0, #0
    a1a0:	ba000002 	blt	a1b0 <stat+0x20>
    a1a4:	e1a01004 	mov	r1, r4
    a1a8:	e8bd4010 	pop	{r4, lr}
    a1ac:	ea000069 	b	a358 <romfs_stat>
    a1b0:	e3e00001 	mvn	r0, #1
    a1b4:	e8bd8010 	pop	{r4, pc}

0000a1b8 <mount>:
    a1b8:	e30f11e0 	movw	r1, #61920	@ 0xf1e0
    a1bc:	e1a00002 	mov	r0, r2
    a1c0:	e92d4070 	push	{r4, r5, r6, lr}
    a1c4:	e3a02005 	mov	r2, #5
    a1c8:	e3401000 	movt	r1, #0
    a1cc:	eb0010dd 	bl	e548 <strncmp>
    a1d0:	e2504000 	subs	r4, r0, #0
    a1d4:	1a000007 	bne	a1f8 <mount+0x40>
    a1d8:	e3045440 	movw	r5, #17472	@ 0x4440
    a1dc:	e3405003 	movt	r5, #3
    a1e0:	e2850f61 	add	r0, r5, #388	@ 0x184
    a1e4:	eb0000f8 	bl	a5cc <romfs_mount>
    a1e8:	e3500000 	cmp	r0, #0
    a1ec:	a5850180 	strge	r0, [r5, #384]	@ 0x180
    a1f0:	a1a00004 	movge	r0, r4
    a1f4:	e8bd8070 	pop	{r4, r5, r6, pc}
    a1f8:	e3e00012 	mvn	r0, #18
    a1fc:	e8bd8070 	pop	{r4, r5, r6, pc}

0000a200 <fd_table_init>:
    a200:	e3a03000 	mov	r3, #0
    a204:	e3042440 	movw	r2, #17472	@ 0x4440
    a208:	e3402003 	movt	r2, #3
    a20c:	e1a01003 	mov	r1, r3
    a210:	e7821103 	str	r1, [r2, r3, lsl #2]
    a214:	e2833003 	add	r3, r3, #3
    a218:	e3530060 	cmp	r3, #96	@ 0x60
    a21c:	1afffffb 	bne	a210 <fd_table_init+0x10>
    a220:	e3a03001 	mov	r3, #1
    a224:	e5823000 	str	r3, [r2]
    a228:	e582300c 	str	r3, [r2, #12]
    a22c:	e5823018 	str	r3, [r2, #24]
    a230:	e12fff1e 	bx	lr

0000a234 <getdents>:
    a234:	e350001f 	cmp	r0, #31
    a238:	8a000017 	bhi	a29c <getdents+0x68>
    a23c:	e92d4070 	push	{r4, r5, r6, lr}
    a240:	e3a0c00c 	mov	ip, #12
    a244:	e304e440 	movw	lr, #17472	@ 0x4440
    a248:	e1a03002 	mov	r3, r2
    a24c:	e340e003 	movt	lr, #3
    a250:	e1a05001 	mov	r5, r1
    a254:	e00c009c 	mul	ip, ip, r0
    a258:	e1a04000 	mov	r4, r0
    a25c:	e79e200c 	ldr	r2, [lr, ip]
    a260:	e08e100c 	add	r1, lr, ip
    a264:	e3520000 	cmp	r2, #0
    a268:	0a000005 	beq	a284 <getdents+0x50>
    a26c:	e5910004 	ldr	r0, [r1, #4]
    a270:	e28cc008 	add	ip, ip, #8
    a274:	e08e100c 	add	r1, lr, ip
    a278:	e1a02005 	mov	r2, r5
    a27c:	e8bd4070 	pop	{r4, r5, r6, lr}
    a280:	ea000153 	b	a7d4 <romfs_getdents>
    a284:	e30f0978 	movw	r0, #63864	@ 0xf978
    a288:	e1a01004 	mov	r1, r4
    a28c:	e3400000 	movt	r0, #0
    a290:	eb00107c 	bl	e488 <printk>
    a294:	e3e00008 	mvn	r0, #8
    a298:	e8bd8070 	pop	{r4, r5, r6, pc}
    a29c:	e3e00016 	mvn	r0, #22
    a2a0:	e12fff1e 	bx	lr

0000a2a4 <chdir>:
    a2a4:	e92d4010 	push	{r4, lr}
    a2a8:	e24dd038 	sub	sp, sp, #56	@ 0x38
    a2ac:	ebffff50 	bl	9ff4 <get_inode>
    a2b0:	e2504000 	subs	r4, r0, #0
    a2b4:	ba00000e 	blt	a2f4 <chdir+0x50>
    a2b8:	e28d1004 	add	r1, sp, #4
    a2bc:	eb000025 	bl	a358 <romfs_stat>
    a2c0:	e3500000 	cmp	r0, #0
    a2c4:	ba000008 	blt	a2ec <chdir+0x48>
    a2c8:	e59d300c 	ldr	r3, [sp, #12]
    a2cc:	e2033a0f 	and	r3, r3, #61440	@ 0xf000
    a2d0:	e3530901 	cmp	r3, #16384	@ 0x4000
    a2d4:	1a000008 	bne	a2fc <chdir+0x58>
    a2d8:	e3043008 	movw	r3, #16392	@ 0x4008
    a2dc:	e3a00000 	mov	r0, #0
    a2e0:	e34030c4 	movt	r3, #196	@ 0xc4
    a2e4:	e5933000 	ldr	r3, [r3]
    a2e8:	e58340b4 	str	r4, [r3, #180]	@ 0xb4
    a2ec:	e28dd038 	add	sp, sp, #56	@ 0x38
    a2f0:	e8bd8010 	pop	{r4, pc}
    a2f4:	e3e00001 	mvn	r0, #1
    a2f8:	eafffffb 	b	a2ec <chdir+0x48>
    a2fc:	e3e00013 	mvn	r0, #19
    a300:	eafffff9 	b	a2ec <chdir+0x48>

0000a304 <getcwd>:
    a304:	e3043008 	movw	r3, #16392	@ 0x4008
    a308:	e34030c4 	movt	r3, #196	@ 0xc4
    a30c:	e92d4030 	push	{r4, r5, lr}
    a310:	e24dd03c 	sub	sp, sp, #60	@ 0x3c
    a314:	e5933000 	ldr	r3, [r3]
    a318:	e1a04000 	mov	r4, r0
    a31c:	e1a05001 	mov	r5, r1
    a320:	e28d1004 	add	r1, sp, #4
    a324:	e59300b4 	ldr	r0, [r3, #180]	@ 0xb4
    a328:	eb00000a 	bl	a358 <romfs_stat>
    a32c:	e30f19a8 	movw	r1, #63912	@ 0xf9a8
    a330:	e1a02005 	mov	r2, r5
    a334:	e3401000 	movt	r1, #0
    a338:	e1a00004 	mov	r0, r4
    a33c:	eb0010a4 	bl	e5d4 <strncpy>
    a340:	e1a00004 	mov	r0, r4
    a344:	e28dd03c 	add	sp, sp, #60	@ 0x3c
    a348:	e8bd8030 	pop	{r4, r5, pc}

0000a34c <statfs>:
    a34c:	e59f0000 	ldr	r0, [pc]	@ a354 <statfs+0x8>
    a350:	ea0000d3 	b	a6a4 <romfs_statfs>
    a354:	000345c4 	andeq	r4, r3, r4, asr #11

0000a358 <romfs_stat>:
    a358:	e92d4070 	push	{r4, r5, r6, lr}
    a35c:	e1a06000 	mov	r6, r0
    a360:	e24dd008 	sub	sp, sp, #8
    a364:	e1a05001 	mov	r5, r1
    a368:	e3a02034 	mov	r2, #52	@ 0x34
    a36c:	e3a01000 	mov	r1, #0
    a370:	e1a00005 	mov	r0, r5
    a374:	eb000f0e 	bl	dfb4 <memset>
    a378:	e5856004 	str	r6, [r5, #4]
    a37c:	e30031b6 	movw	r3, #438	@ 0x1b6
    a380:	e5853008 	str	r3, [r5, #8]
    a384:	e28d2004 	add	r2, sp, #4
    a388:	e3a01004 	mov	r1, #4
    a38c:	e1a00006 	mov	r0, r6
    a390:	eb000196 	bl	a9f0 <ramdisk_read>
    a394:	e59d4004 	ldr	r4, [sp, #4]
    a398:	e3a01004 	mov	r1, #4
    a39c:	e6bf4f34 	rev	r4, r4
    a3a0:	e0860001 	add	r0, r6, r1
    a3a4:	e3140008 	tst	r4, #8
    a3a8:	e2044007 	and	r4, r4, #7
    a3ac:	e28d2004 	add	r2, sp, #4
    a3b0:	15953008 	ldrne	r3, [r5, #8]
    a3b4:	e2444001 	sub	r4, r4, #1
    a3b8:	13833049 	orrne	r3, r3, #73	@ 0x49
    a3bc:	15853008 	strne	r3, [r5, #8]
    a3c0:	eb00018a 	bl	a9f0 <ramdisk_read>
    a3c4:	e59d3004 	ldr	r3, [sp, #4]
    a3c8:	e6bf3f33 	rev	r3, r3
    a3cc:	e3540006 	cmp	r4, #6
    a3d0:	979ff104 	ldrls	pc, [pc, r4, lsl #2]
    a3d4:	ea00002d 	b	a490 <romfs_stat+0x138>
    a3d8:	0000a480 	andeq	sl, r0, r0, lsl #9
    a3dc:	0000a470 	andeq	sl, r0, r0, ror r4
    a3e0:	0000a460 	andeq	sl, r0, r0, ror #8
    a3e4:	0000a44c 	andeq	sl, r0, ip, asr #8
    a3e8:	0000a438 	andeq	sl, r0, r8, lsr r4
    a3ec:	0000a428 	andeq	sl, r0, r8, lsr #8
    a3f0:	0000a3f4 	strdeq	sl, [r0], -r4
    a3f4:	e5953008 	ldr	r3, [r5, #8]
    a3f8:	e3833a01 	orr	r3, r3, #4096	@ 0x1000
    a3fc:	e5853008 	str	r3, [r5, #8]
    a400:	e28d2004 	add	r2, sp, #4
    a404:	e3a01004 	mov	r1, #4
    a408:	e2860008 	add	r0, r6, #8
    a40c:	eb000177 	bl	a9f0 <ramdisk_read>
    a410:	e59d3004 	ldr	r3, [sp, #4]
    a414:	e3a00000 	mov	r0, #0
    a418:	e6bf3f33 	rev	r3, r3
    a41c:	e585301c 	str	r3, [r5, #28]
    a420:	e28dd008 	add	sp, sp, #8
    a424:	e8bd8070 	pop	{r4, r5, r6, pc}
    a428:	e5953008 	ldr	r3, [r5, #8]
    a42c:	e3833903 	orr	r3, r3, #49152	@ 0xc000
    a430:	e5853008 	str	r3, [r5, #8]
    a434:	eafffff1 	b	a400 <romfs_stat+0xa8>
    a438:	e5952008 	ldr	r2, [r5, #8]
    a43c:	e5853018 	str	r3, [r5, #24]
    a440:	e3823a02 	orr	r3, r2, #8192	@ 0x2000
    a444:	e5853008 	str	r3, [r5, #8]
    a448:	eaffffec 	b	a400 <romfs_stat+0xa8>
    a44c:	e5952008 	ldr	r2, [r5, #8]
    a450:	e5853018 	str	r3, [r5, #24]
    a454:	e3823a06 	orr	r3, r2, #24576	@ 0x6000
    a458:	e5853008 	str	r3, [r5, #8]
    a45c:	eaffffe7 	b	a400 <romfs_stat+0xa8>
    a460:	e5953008 	ldr	r3, [r5, #8]
    a464:	e3833a0a 	orr	r3, r3, #40960	@ 0xa000
    a468:	e5853008 	str	r3, [r5, #8]
    a46c:	eaffffe3 	b	a400 <romfs_stat+0xa8>
    a470:	e5953008 	ldr	r3, [r5, #8]
    a474:	e3833902 	orr	r3, r3, #32768	@ 0x8000
    a478:	e5853008 	str	r3, [r5, #8]
    a47c:	eaffffdf 	b	a400 <romfs_stat+0xa8>
    a480:	e5953008 	ldr	r3, [r5, #8]
    a484:	e3833901 	orr	r3, r3, #16384	@ 0x4000
    a488:	e5853008 	str	r3, [r5, #8]
    a48c:	eaffffdb 	b	a400 <romfs_stat+0xa8>
    a490:	e1a06003 	mov	r6, r3
    a494:	eaffffb3 	b	a368 <romfs_stat+0x10>

0000a498 <romfs_get_inode>:
    a498:	e92d43f0 	push	{r4, r5, r6, r7, r8, r9, lr}
    a49c:	e24ddf47 	sub	sp, sp, #284	@ 0x11c
    a4a0:	e28d2004 	add	r2, sp, #4
    a4a4:	e1a05000 	mov	r5, r0
    a4a8:	e1a08001 	mov	r8, r1
    a4ac:	e3a01004 	mov	r1, #4
    a4b0:	eb00014e 	bl	a9f0 <ramdisk_read>
    a4b4:	e59d4004 	ldr	r4, [sp, #4]
    a4b8:	e28d2004 	add	r2, sp, #4
    a4bc:	e2850004 	add	r0, r5, #4
    a4c0:	e3a01004 	mov	r1, #4
    a4c4:	e6bf4f34 	rev	r4, r4
    a4c8:	e2044007 	and	r4, r4, #7
    a4cc:	eb000147 	bl	a9f0 <ramdisk_read>
    a4d0:	e59d0004 	ldr	r0, [sp, #4]
    a4d4:	e3540001 	cmp	r4, #1
    a4d8:	e1a06000 	mov	r6, r0
    a4dc:	e6bf6f36 	rev	r6, r6
    a4e0:	1a000037 	bne	a5c4 <romfs_get_inode+0x12c>
    a4e4:	e3a09000 	mov	r9, #0
    a4e8:	e1a00006 	mov	r0, r6
    a4ec:	e28d2004 	add	r2, sp, #4
    a4f0:	e3a01004 	mov	r1, #4
    a4f4:	e1a07006 	mov	r7, r6
    a4f8:	e2865e11 	add	r5, r6, #272	@ 0x110
    a4fc:	eb00013b 	bl	a9f0 <ramdisk_read>
    a500:	e59d0004 	ldr	r0, [sp, #4]
    a504:	e3a04c01 	mov	r4, #256	@ 0x100
    a508:	e6bf0f30 	rev	r0, r0
    a50c:	e3c0600f 	bic	r6, r0, #15
    a510:	e5cd9018 	strb	r9, [sp, #24]
    a514:	e0450004 	sub	r0, r5, r4
    a518:	e3a01010 	mov	r1, #16
    a51c:	e28d2008 	add	r2, sp, #8
    a520:	eb000132 	bl	a9f0 <ramdisk_read>
    a524:	e3540000 	cmp	r4, #0
    a528:	e28d1008 	add	r1, sp, #8
    a52c:	e28d0018 	add	r0, sp, #24
    a530:	da000003 	ble	a544 <romfs_get_inode+0xac>
    a534:	e3540010 	cmp	r4, #16
    a538:	b1a02004 	movlt	r2, r4
    a53c:	a3a02010 	movge	r2, #16
    a540:	eb001057 	bl	e6a4 <strncat>
    a544:	e5dd3017 	ldrb	r3, [sp, #23]
    a548:	e2444010 	sub	r4, r4, #16
    a54c:	e3530000 	cmp	r3, #0
    a550:	1affffef 	bne	a514 <romfs_get_inode+0x7c>
    a554:	e3a02c01 	mov	r2, #256	@ 0x100
    a558:	e28d1018 	add	r1, sp, #24
    a55c:	e1a00008 	mov	r0, r8
    a560:	eb000ff8 	bl	e548 <strncmp>
    a564:	e3500000 	cmp	r0, #0
    a568:	0a000004 	beq	a580 <romfs_get_inode+0xe8>
    a56c:	e3560000 	cmp	r6, #0
    a570:	1affffdc 	bne	a4e8 <romfs_get_inode+0x50>
    a574:	e3e00000 	mvn	r0, #0
    a578:	e28ddf47 	add	sp, sp, #284	@ 0x11c
    a57c:	e8bd83f0 	pop	{r4, r5, r6, r7, r8, r9, pc}
    a580:	e28d2008 	add	r2, sp, #8
    a584:	e3a01004 	mov	r1, #4
    a588:	e1a00007 	mov	r0, r7
    a58c:	eb000117 	bl	a9f0 <ramdisk_read>
    a590:	e59d4008 	ldr	r4, [sp, #8]
    a594:	e2870004 	add	r0, r7, #4
    a598:	e28d2008 	add	r2, sp, #8
    a59c:	e3a01004 	mov	r1, #4
    a5a0:	eb000112 	bl	a9f0 <ramdisk_read>
    a5a4:	e6bf4f34 	rev	r4, r4
    a5a8:	e59d3008 	ldr	r3, [sp, #8]
    a5ac:	e3140007 	tst	r4, #7
    a5b0:	e1a00007 	mov	r0, r7
    a5b4:	e6bf3f33 	rev	r3, r3
    a5b8:	e1a07003 	mov	r7, r3
    a5bc:	0affffef 	beq	a580 <romfs_get_inode+0xe8>
    a5c0:	eaffffec 	b	a578 <romfs_get_inode+0xe0>
    a5c4:	e3e00013 	mvn	r0, #19
    a5c8:	eaffffea 	b	a578 <romfs_get_inode+0xe0>

0000a5cc <romfs_mount>:
    a5cc:	e92d4010 	push	{r4, lr}
    a5d0:	e24dd040 	sub	sp, sp, #64	@ 0x40
    a5d4:	e3a01008 	mov	r1, #8
    a5d8:	e28d2018 	add	r2, sp, #24
    a5dc:	e3a00000 	mov	r0, #0
    a5e0:	eb000102 	bl	a9f0 <ramdisk_read>
    a5e4:	e30f19b0 	movw	r1, #63920	@ 0xf9b0
    a5e8:	e3a02008 	mov	r2, #8
    a5ec:	e3401000 	movt	r1, #0
    a5f0:	e28d0018 	add	r0, sp, #24
    a5f4:	eb000fe4 	bl	e58c <memcmp>
    a5f8:	e2504000 	subs	r4, r0, #0
    a5fc:	1a000023 	bne	a690 <romfs_mount+0xc4>
    a600:	e3a01004 	mov	r1, #4
    a604:	e3a00008 	mov	r0, #8
    a608:	e08d2001 	add	r2, sp, r1
    a60c:	eb0000f7 	bl	a9f0 <ramdisk_read>
    a610:	e59d3004 	ldr	r3, [sp, #4]
    a614:	e28d2004 	add	r2, sp, #4
    a618:	e3a01004 	mov	r1, #4
    a61c:	e3a0000c 	mov	r0, #12
    a620:	e6bf3f33 	rev	r3, r3
    a624:	e58d3020 	str	r3, [sp, #32]
    a628:	eb0000f0 	bl	a9f0 <ramdisk_read>
    a62c:	e59d3004 	ldr	r3, [sp, #4]
    a630:	e3a01010 	mov	r1, #16
    a634:	e5cd4028 	strb	r4, [sp, #40]	@ 0x28
    a638:	e28d2008 	add	r2, sp, #8
    a63c:	e1a00001 	mov	r0, r1
    a640:	e3a04020 	mov	r4, #32
    a644:	e6bf3f33 	rev	r3, r3
    a648:	e58d3024 	str	r3, [sp, #36]	@ 0x24
    a64c:	eb0000e7 	bl	a9f0 <ramdisk_read>
    a650:	e3a02010 	mov	r2, #16
    a654:	e28d1008 	add	r1, sp, #8
    a658:	e28d0028 	add	r0, sp, #40	@ 0x28
    a65c:	eb001010 	bl	e6a4 <strncat>
    a660:	ea000001 	b	a66c <romfs_mount+0xa0>
    a664:	e0844001 	add	r4, r4, r1
    a668:	eb0000e0 	bl	a9f0 <ramdisk_read>
    a66c:	e5dd3017 	ldrb	r3, [sp, #23]
    a670:	e1a00004 	mov	r0, r4
    a674:	e28d2008 	add	r2, sp, #8
    a678:	e3a01010 	mov	r1, #16
    a67c:	e3530000 	cmp	r3, #0
    a680:	1afffff7 	bne	a664 <romfs_mount+0x98>
    a684:	e1a00004 	mov	r0, r4
    a688:	e28dd040 	add	sp, sp, #64	@ 0x40
    a68c:	e8bd8010 	pop	{r4, pc}
    a690:	e30f09bc 	movw	r0, #63932	@ 0xf9bc
    a694:	e3e04000 	mvn	r4, #0
    a698:	e3400000 	movt	r0, #0
    a69c:	eb000f79 	bl	e488 <printk>
    a6a0:	eafffff7 	b	a684 <romfs_mount+0xb8>

0000a6a4 <romfs_statfs>:
    a6a4:	e3073275 	movw	r3, #29301	@ 0x7275
    a6a8:	e3a00000 	mov	r0, #0
    a6ac:	e92d4010 	push	{r4, lr}
    a6b0:	e24dd030 	sub	sp, sp, #48	@ 0x30
    a6b4:	e5813000 	str	r3, [r1]
    a6b8:	e3a03b01 	mov	r3, #1024	@ 0x400
    a6bc:	e5813004 	str	r3, [r1, #4]
    a6c0:	e28d2008 	add	r2, sp, #8
    a6c4:	e1a04001 	mov	r4, r1
    a6c8:	e3a01008 	mov	r1, #8
    a6cc:	eb0000c7 	bl	a9f0 <ramdisk_read>
    a6d0:	e3a02008 	mov	r2, #8
    a6d4:	e30f19b0 	movw	r1, #63920	@ 0xf9b0
    a6d8:	e3401000 	movt	r1, #0
    a6dc:	e08d0002 	add	r0, sp, r2
    a6e0:	eb000fa9 	bl	e58c <memcmp>
    a6e4:	e3500000 	cmp	r0, #0
    a6e8:	1a000014 	bne	a740 <romfs_statfs+0x9c>
    a6ec:	e28d2004 	add	r2, sp, #4
    a6f0:	e3a01004 	mov	r1, #4
    a6f4:	e3a00008 	mov	r0, #8
    a6f8:	eb0000bc 	bl	a9f0 <ramdisk_read>
    a6fc:	e59d3004 	ldr	r3, [sp, #4]
    a700:	e6bf3f33 	rev	r3, r3
    a704:	e1a03523 	lsr	r3, r3, #10
    a708:	e5843008 	str	r3, [r4, #8]
    a70c:	e3a00000 	mov	r0, #0
    a710:	e584000c 	str	r0, [r4, #12]
    a714:	e3a0200a 	mov	r2, #10
    a718:	e5840010 	str	r0, [r4, #16]
    a71c:	e3a03c01 	mov	r3, #256	@ 0x100
    a720:	e5842014 	str	r2, [r4, #20]
    a724:	e5840018 	str	r0, [r4, #24]
    a728:	e584001c 	str	r0, [r4, #28]
    a72c:	e5843020 	str	r3, [r4, #32]
    a730:	e5840024 	str	r0, [r4, #36]	@ 0x24
    a734:	e5840028 	str	r0, [r4, #40]	@ 0x28
    a738:	e28dd030 	add	sp, sp, #48	@ 0x30
    a73c:	e8bd8010 	pop	{r4, pc}
    a740:	e30f09bc 	movw	r0, #63932	@ 0xf9bc
    a744:	e3400000 	movt	r0, #0
    a748:	eb000f4e 	bl	e488 <printk>
    a74c:	e30f3fff 	movw	r3, #65535	@ 0xffff
    a750:	e340303f 	movt	r3, #63	@ 0x3f
    a754:	eaffffeb 	b	a708 <romfs_statfs+0x64>

0000a758 <romfs_read_file>:
    a758:	e92d43f0 	push	{r4, r5, r6, r7, r8, r9, lr}
    a75c:	e1a05000 	mov	r5, r0
    a760:	e24dd01c 	sub	sp, sp, #28
    a764:	e2855010 	add	r5, r5, #16
    a768:	e3a04000 	mov	r4, #0
    a76c:	e1a08002 	mov	r8, r2
    a770:	e1a07001 	mov	r7, r1
    a774:	e28d2004 	add	r2, sp, #4
    a778:	e3a01004 	mov	r1, #4
    a77c:	e2800008 	add	r0, r0, #8
    a780:	e1a06003 	mov	r6, r3
    a784:	eb000099 	bl	a9f0 <ramdisk_read>
    a788:	e59d9004 	ldr	r9, [sp, #4]
    a78c:	e6bf9f39 	rev	r9, r9
    a790:	e0850004 	add	r0, r5, r4
    a794:	e3a01010 	mov	r1, #16
    a798:	e0844001 	add	r4, r4, r1
    a79c:	e28d2008 	add	r2, sp, #8
    a7a0:	eb000092 	bl	a9f0 <ramdisk_read>
    a7a4:	e5dd0017 	ldrb	r0, [sp, #23]
    a7a8:	e3500000 	cmp	r0, #0
    a7ac:	1afffff7 	bne	a790 <romfs_read_file+0x38>
    a7b0:	e0491007 	sub	r1, r9, r7
    a7b4:	e1a02008 	mov	r2, r8
    a7b8:	e1510006 	cmp	r1, r6
    a7bc:	e0850004 	add	r0, r5, r4
    a7c0:	21a01006 	movcs	r1, r6
    a7c4:	e0800007 	add	r0, r0, r7
    a7c8:	eb000088 	bl	a9f0 <ramdisk_read>
    a7cc:	e28dd01c 	add	sp, sp, #28
    a7d0:	e8bd83f0 	pop	{r4, r5, r6, r7, r8, r9, pc}

0000a7d4 <romfs_getdents>:
    a7d4:	e92d4ff0 	push	{r4, r5, r6, r7, r8, r9, sl, fp, lr}
    a7d8:	e24dd02c 	sub	sp, sp, #44	@ 0x2c
    a7dc:	e5918000 	ldr	r8, [r1]
    a7e0:	e58d3004 	str	r3, [sp, #4]
    a7e4:	e3780001 	cmn	r8, #1
    a7e8:	03a0a000 	moveq	sl, #0
    a7ec:	0a00004a 	beq	a91c <romfs_getdents+0x148>
    a7f0:	e3580000 	cmp	r8, #0
    a7f4:	e1a04001 	mov	r4, r1
    a7f8:	e1a07002 	mov	r7, r2
    a7fc:	0a00004c 	beq	a934 <romfs_getdents+0x160>
    a800:	e28d3014 	add	r3, sp, #20
    a804:	e58d3008 	str	r3, [sp, #8]
    a808:	e58d400c 	str	r4, [sp, #12]
    a80c:	e3a0a000 	mov	sl, #0
    a810:	e59d2008 	ldr	r2, [sp, #8]
    a814:	e3a01004 	mov	r1, #4
    a818:	e1a00008 	mov	r0, r8
    a81c:	e3a09000 	mov	r9, #0
    a820:	e2885010 	add	r5, r8, #16
    a824:	eb000071 	bl	a9f0 <ramdisk_read>
    a828:	e59d6014 	ldr	r6, [sp, #20]
    a82c:	e6bf6f36 	rev	r6, r6
    a830:	e3c6600f 	bic	r6, r6, #15
    a834:	ea000000 	b	a83c <romfs_getdents+0x68>
    a838:	e2899010 	add	r9, r9, #16
    a83c:	e0890005 	add	r0, r9, r5
    a840:	e28d2018 	add	r2, sp, #24
    a844:	e3a01010 	mov	r1, #16
    a848:	eb000068 	bl	a9f0 <ramdisk_read>
    a84c:	e5dd3027 	ldrb	r3, [sp, #39]	@ 0x27
    a850:	e3530000 	cmp	r3, #0
    a854:	1afffff7 	bne	a838 <romfs_getdents+0x64>
    a858:	e28d0018 	add	r0, sp, #24
    a85c:	eb000fb6 	bl	e73c <strlen>
    a860:	e0809009 	add	r9, r0, r9
    a864:	e289400d 	add	r4, r9, #13
    a868:	e2143003 	ands	r3, r4, #3
    a86c:	0a000004 	beq	a884 <romfs_getdents+0xb0>
    a870:	e2741000 	rsbs	r1, r4, #0
    a874:	e2011003 	and	r1, r1, #3
    a878:	52613000 	rsbpl	r3, r1, #0
    a87c:	e2633004 	rsb	r3, r3, #4
    a880:	e0844003 	add	r4, r4, r3
    a884:	e59d3004 	ldr	r3, [sp, #4]
    a888:	e084b00a 	add	fp, r4, sl
    a88c:	e15b0003 	cmp	fp, r3
    a890:	8a00001f 	bhi	a914 <romfs_getdents+0x140>
    a894:	e3580000 	cmp	r8, #0
    a898:	0a000022 	beq	a928 <romfs_getdents+0x154>
    a89c:	e089a005 	add	sl, r9, r5
    a8a0:	e1a05009 	mov	r5, r9
    a8a4:	e5878000 	str	r8, [r7]
    a8a8:	e287800c 	add	r8, r7, #12
    a8ac:	e5874004 	str	r4, [r7, #4]
    a8b0:	e3a03000 	mov	r3, #0
    a8b4:	e5874008 	str	r4, [r7, #8]
    a8b8:	e5c7300c 	strb	r3, [r7, #12]
    a8bc:	e04a0005 	sub	r0, sl, r5
    a8c0:	e3a01010 	mov	r1, #16
    a8c4:	e28d2018 	add	r2, sp, #24
    a8c8:	eb000048 	bl	a9f0 <ramdisk_read>
    a8cc:	e3550000 	cmp	r5, #0
    a8d0:	e28d1018 	add	r1, sp, #24
    a8d4:	e1a00008 	mov	r0, r8
    a8d8:	da000003 	ble	a8ec <romfs_getdents+0x118>
    a8dc:	e3550010 	cmp	r5, #16
    a8e0:	b1a02005 	movlt	r2, r5
    a8e4:	a3a02010 	movge	r2, #16
    a8e8:	eb000f6d 	bl	e6a4 <strncat>
    a8ec:	e5dd3027 	ldrb	r3, [sp, #39]	@ 0x27
    a8f0:	e2455010 	sub	r5, r5, #16
    a8f4:	e3530000 	cmp	r3, #0
    a8f8:	1affffef 	bne	a8bc <romfs_getdents+0xe8>
    a8fc:	e0870009 	add	r0, r7, r9
    a900:	e1a0a00b 	mov	sl, fp
    a904:	e0877004 	add	r7, r7, r4
    a908:	e1a08006 	mov	r8, r6
    a90c:	e5c0300c 	strb	r3, [r0, #12]
    a910:	eaffffbe 	b	a810 <romfs_getdents+0x3c>
    a914:	e59d400c 	ldr	r4, [sp, #12]
    a918:	e5848000 	str	r8, [r4]
    a91c:	e1a0000a 	mov	r0, sl
    a920:	e28dd02c 	add	sp, sp, #44	@ 0x2c
    a924:	e8bd8ff0 	pop	{r4, r5, r6, r7, r8, r9, sl, fp, pc}
    a928:	e59d400c 	ldr	r4, [sp, #12]
    a92c:	e3e08000 	mvn	r8, #0
    a930:	eafffff8 	b	a918 <romfs_getdents+0x144>
    a934:	e28d3014 	add	r3, sp, #20
    a938:	e3a01004 	mov	r1, #4
    a93c:	e58d3008 	str	r3, [sp, #8]
    a940:	e1a02003 	mov	r2, r3
    a944:	e1a05000 	mov	r5, r0
    a948:	eb000028 	bl	a9f0 <ramdisk_read>
    a94c:	e59d2014 	ldr	r2, [sp, #20]
    a950:	e1a03002 	mov	r3, r2
    a954:	e6bf3f33 	rev	r3, r3
    a958:	e2033007 	and	r3, r3, #7
    a95c:	e3530001 	cmp	r3, #1
    a960:	1a000006 	bne	a980 <romfs_getdents+0x1ac>
    a964:	e59d2008 	ldr	r2, [sp, #8]
    a968:	e2850004 	add	r0, r5, #4
    a96c:	e3a01004 	mov	r1, #4
    a970:	eb00001e 	bl	a9f0 <ramdisk_read>
    a974:	e59d8014 	ldr	r8, [sp, #20]
    a978:	e6bf8f38 	rev	r8, r8
    a97c:	eaffffa1 	b	a808 <romfs_getdents+0x34>
    a980:	e30f09d4 	movw	r0, #63956	@ 0xf9d4
    a984:	e1a01005 	mov	r1, r5
    a988:	e3400000 	movt	r0, #0
    a98c:	e3e0a013 	mvn	sl, #19
    a990:	eb000ebc 	bl	e488 <printk>
    a994:	eaffffe0 	b	a91c <romfs_getdents+0x148>

0000a998 <drivers_init_all>:
    a998:	e92d4010 	push	{r4, lr}
    a99c:	eb000453 	bl	baf0 <led_init>
    a9a0:	eb0004df 	bl	bd24 <timer_init>
    a9a4:	e3a02018 	mov	r2, #24
    a9a8:	e3a01f96 	mov	r1, #600	@ 0x258
    a9ac:	e3a00e32 	mov	r0, #800	@ 0x320
    a9b0:	eb00009e 	bl	ac30 <framebuffer_init>
    a9b4:	eb00042f 	bl	ba78 <framebuffer_console_init>
    a9b8:	e8bd4010 	pop	{r4, lr}
    a9bc:	ea0004d4 	b	bd14 <serial_enable_interrupts>

0000a9c0 <bcm2835_write>:
    a9c0:	e3043408 	movw	r3, #17416	@ 0x4408
    a9c4:	e3403003 	movt	r3, #3
    a9c8:	e5933000 	ldr	r3, [r3]
    a9cc:	e0800003 	add	r0, r0, r3
    a9d0:	e5801000 	str	r1, [r0]
    a9d4:	e12fff1e 	bx	lr

0000a9d8 <bcm2835_read>:
    a9d8:	e3043408 	movw	r3, #17416	@ 0x4408
    a9dc:	e3403003 	movt	r3, #3
    a9e0:	e5933000 	ldr	r3, [r3]
    a9e4:	e0800003 	add	r0, r0, r3
    a9e8:	e5900000 	ldr	r0, [r0]
    a9ec:	e12fff1e 	bx	lr

0000a9f0 <ramdisk_read>:
    a9f0:	e304c604 	movw	ip, #17924	@ 0x4604
    a9f4:	e340c003 	movt	ip, #3
    a9f8:	e92d4010 	push	{r4, lr}
    a9fc:	e1a04001 	mov	r4, r1
    aa00:	e59ce004 	ldr	lr, [ip, #4]
    aa04:	e0801001 	add	r1, r0, r1
    aa08:	e151000e 	cmp	r1, lr
    aa0c:	8a000007 	bhi	aa30 <ramdisk_read+0x40>
    aa10:	e59c1000 	ldr	r1, [ip]
    aa14:	e1a03000 	mov	r3, r0
    aa18:	e1a00002 	mov	r0, r2
    aa1c:	e1a02004 	mov	r2, r4
    aa20:	e0811003 	add	r1, r1, r3
    aa24:	eb000d17 	bl	de88 <memcpy>
    aa28:	e1a00004 	mov	r0, r4
    aa2c:	e8bd8010 	pop	{r4, pc}
    aa30:	e30f0a0c 	movw	r0, #64012	@ 0xfa0c
    aa34:	e1a0200e 	mov	r2, lr
    aa38:	e3400000 	movt	r0, #0
    aa3c:	eb000e91 	bl	e488 <printk>
    aa40:	e3e00021 	mvn	r0, #33	@ 0x21
    aa44:	e8bd8010 	pop	{r4, pc}

0000aa48 <ramdisk_init>:
    aa48:	e92d4070 	push	{r4, r5, r6, lr}
    aa4c:	e1a04000 	mov	r4, r0
    aa50:	e30f0a34 	movw	r0, #64052	@ 0xfa34
    aa54:	e1a02004 	mov	r2, r4
    aa58:	e3400000 	movt	r0, #0
    aa5c:	e1a05001 	mov	r5, r1
    aa60:	eb000e88 	bl	e488 <printk>
    aa64:	e3043604 	movw	r3, #17924	@ 0x4604
    aa68:	e3a00000 	mov	r0, #0
    aa6c:	e3403003 	movt	r3, #3
    aa70:	e1c340f0 	strd	r4, [r3]
    aa74:	e8bd8070 	pop	{r4, r5, r6, pc}

0000aa78 <console_insert_char>:
    aa78:	e3043610 	movw	r3, #17936	@ 0x4610
    aa7c:	e3403003 	movt	r3, #3
    aa80:	e8931002 	ldm	r3, {r1, ip}
    aa84:	e2812001 	add	r2, r1, #1
    aa88:	e3520c01 	cmp	r2, #256	@ 0x100
    aa8c:	23a02000 	movcs	r2, #0
    aa90:	e15c0002 	cmp	ip, r2
    aa94:	0a000017 	beq	aaf8 <console_insert_char+0x80>
    aa98:	e0831001 	add	r1, r3, r1
    aa9c:	e3500002 	cmp	r0, #2
    aaa0:	e92d4010 	push	{r4, lr}
    aaa4:	e5832000 	str	r2, [r3]
    aaa8:	e5c10008 	strb	r0, [r1, #8]
    aaac:	0a00000c 	beq	aae4 <console_insert_char+0x6c>
    aab0:	e350001a 	cmp	r0, #26
    aab4:	0a000003 	beq	aac8 <console_insert_char+0x50>
    aab8:	e59f0040 	ldr	r0, [pc, #64]	@ ab00 <console_insert_char+0x88>
    aabc:	eb000c47 	bl	dbe0 <wait_queue_wake>
    aac0:	e3a00000 	mov	r0, #0
    aac4:	e8bd8010 	pop	{r4, pc}
    aac8:	e3022020 	movw	r2, #8224	@ 0x2020
    aacc:	e3402003 	movt	r2, #3
    aad0:	e5923000 	ldr	r3, [r2]
    aad4:	e16f3f13 	clz	r3, r3
    aad8:	e1a032a3 	lsr	r3, r3, #5
    aadc:	e5823000 	str	r3, [r2]
    aae0:	eafffff4 	b	aab8 <console_insert_char+0x40>
    aae4:	e3043008 	movw	r3, #16392	@ 0x4008
    aae8:	e34030c4 	movt	r3, #196	@ 0xc4
    aaec:	e5930000 	ldr	r0, [r3]
    aaf0:	eb000c4a 	bl	dc20 <dump_saved_user_state>
    aaf4:	eaffffef 	b	aab8 <console_insert_char+0x40>
    aaf8:	e3e00000 	mvn	r0, #0
    aafc:	e12fff1e 	bx	lr
    ab00:	00034718 	andeq	r4, r3, r8, lsl r7

0000ab04 <console_write>:
    ab04:	e92d4070 	push	{r4, r5, r6, lr}
    ab08:	e1a04000 	mov	r4, r0
    ab0c:	e1a05001 	mov	r5, r1
    ab10:	eb000461 	bl	bc9c <serial_write>
    ab14:	e1a01005 	mov	r1, r5
    ab18:	e1a00004 	mov	r0, r4
    ab1c:	e8bd4070 	pop	{r4, r5, r6, lr}
    ab20:	ea0001f3 	b	b2f4 <framebuffer_console_write>

0000ab24 <console_read>:
    ab24:	e92d41f0 	push	{r4, r5, r6, r7, r8, lr}
    ab28:	e3044610 	movw	r4, #17936	@ 0x4610
    ab2c:	e3404003 	movt	r4, #3
    ab30:	e1a05000 	mov	r5, r0
    ab34:	e1a06001 	mov	r6, r1
    ab38:	e1c420d0 	ldrd	r2, [r4]
    ab3c:	e1520003 	cmp	r2, r3
    ab40:	1a000008 	bne	ab68 <console_read+0x44>
    ab44:	e3047008 	movw	r7, #16392	@ 0x4008
    ab48:	e2848f42 	add	r8, r4, #264	@ 0x108
    ab4c:	e34070c4 	movt	r7, #196	@ 0xc4
    ab50:	e5971000 	ldr	r1, [r7]
    ab54:	e1a00008 	mov	r0, r8
    ab58:	eb000c0d 	bl	db94 <wait_queue_add>
    ab5c:	e1c420d0 	ldrd	r2, [r4]
    ab60:	e1520003 	cmp	r2, r3
    ab64:	0afffff9 	beq	ab50 <console_read+0x2c>
    ab68:	e3560000 	cmp	r6, #0
    ab6c:	0a000012 	beq	abbc <console_read+0x98>
    ab70:	e5943004 	ldr	r3, [r4, #4]
    ab74:	e246e001 	sub	lr, r6, #1
    ab78:	e085e00e 	add	lr, r5, lr
    ab7c:	e2450001 	sub	r0, r5, #1
    ab80:	e3a05000 	mov	r5, #0
    ab84:	e1530002 	cmp	r3, r2
    ab88:	e0841003 	add	r1, r4, r3
    ab8c:	03a0c000 	moveq	ip, #0
    ab90:	0a000004 	beq	aba8 <console_read+0x84>
    ab94:	e5d1c008 	ldrb	ip, [r1, #8]
    ab98:	e2833001 	add	r3, r3, #1
    ab9c:	e35300ff 	cmp	r3, #255	@ 0xff
    aba0:	e3a05001 	mov	r5, #1
    aba4:	83a03000 	movhi	r3, #0
    aba8:	e5e0c001 	strb	ip, [r0, #1]!
    abac:	e15e0000 	cmp	lr, r0
    abb0:	1afffff3 	bne	ab84 <console_read+0x60>
    abb4:	e3550000 	cmp	r5, #0
    abb8:	15843004 	strne	r3, [r4, #4]
    abbc:	e1a00006 	mov	r0, r6
    abc0:	e8bd81f0 	pop	{r4, r5, r6, r7, r8, pc}

0000abc4 <dump_framebuffer_info>:
    abc4:	e1a01000 	mov	r1, r0
    abc8:	e30f0a64 	movw	r0, #64100	@ 0xfa64
    abcc:	e52de004 	push	{lr}		@ (str lr, [sp, #-4]!)
    abd0:	e24dd024 	sub	sp, sp, #36	@ 0x24
    abd4:	e5912024 	ldr	r2, [r1, #36]	@ 0x24
    abd8:	e5913020 	ldr	r3, [r1, #32]
    abdc:	e591c01c 	ldr	ip, [r1, #28]
    abe0:	e58d2018 	str	r2, [sp, #24]
    abe4:	e58d3014 	str	r3, [sp, #20]
    abe8:	e1c121d4 	ldrd	r2, [r1, #20]
    abec:	e58dc010 	str	ip, [sp, #16]
    abf0:	e58d300c 	str	r3, [sp, #12]
    abf4:	e5913010 	ldr	r3, [r1, #16]
    abf8:	e591c00c 	ldr	ip, [r1, #12]
    abfc:	e3400000 	movt	r0, #0
    ac00:	e58d2008 	str	r2, [sp, #8]
    ac04:	e58d3004 	str	r3, [sp, #4]
    ac08:	e1c120d4 	ldrd	r2, [r1, #4]
    ac0c:	e5911000 	ldr	r1, [r1]
    ac10:	e58dc000 	str	ip, [sp]
    ac14:	eb000e1b 	bl	e488 <printk>
    ac18:	e28dd024 	add	sp, sp, #36	@ 0x24
    ac1c:	e49df004 	pop	{pc}		@ (ldr pc, [sp], #4)

0000ac20 <framebuffer_ready>:
    ac20:	e3043724 	movw	r3, #18212	@ 0x4724
    ac24:	e3403003 	movt	r3, #3
    ac28:	e5930000 	ldr	r0, [r3]
    ac2c:	e12fff1e 	bx	lr

0000ac30 <framebuffer_init>:
    ac30:	e92d4070 	push	{r4, r5, r6, lr}
    ac34:	e24dd030 	sub	sp, sp, #48	@ 0x30
    ac38:	e28d400f 	add	r4, sp, #15
    ac3c:	e3a03000 	mov	r3, #0
    ac40:	e3c4400f 	bic	r4, r4, #15
    ac44:	e1a0c002 	mov	ip, r2
    ac48:	e30b2880 	movw	r2, #47232	@ 0xb880
    ac4c:	e2846028 	add	r6, r4, #40	@ 0x28
    ac50:	e1c400f0 	strd	r0, [r4]
    ac54:	e1c400f8 	strd	r0, [r4, #8]
    ac58:	e5843010 	str	r3, [r4, #16]
    ac5c:	e30f0aa8 	movw	r0, #64168	@ 0xfaa8
    ac60:	e3400000 	movt	r0, #0
    ac64:	e1a01004 	mov	r1, r4
    ac68:	e584c014 	str	ip, [r4, #20]
    ac6c:	e5843018 	str	r3, [r4, #24]
    ac70:	e584301c 	str	r3, [r4, #28]
    ac74:	e5843020 	str	r3, [r4, #32]
    ac78:	e5843024 	str	r3, [r4, #36]	@ 0x24
    ac7c:	eb000e01 	bl	e488 <printk>
    ac80:	e30f0ad0 	movw	r0, #64208	@ 0xfad0
    ac84:	e3400000 	movt	r0, #0
    ac88:	eb000dfe 	bl	e488 <printk>
    ac8c:	e1a00004 	mov	r0, r4
    ac90:	ebffffcb 	bl	abc4 <dump_framebuffer_info>
    ac94:	e1a01006 	mov	r1, r6
    ac98:	e1a00004 	mov	r0, r4
    ac9c:	eb0008fe 	bl	d09c <flush_dcache>
    aca0:	e3a01001 	mov	r1, #1
    aca4:	e3840103 	orr	r0, r4, #-1073741824	@ 0xc0000000
    aca8:	eb000466 	bl	be48 <mailbox_write>
    acac:	e3500000 	cmp	r0, #0
    acb0:	ba00003a 	blt	ada0 <framebuffer_init+0x170>
    acb4:	e3a00001 	mov	r0, #1
    acb8:	eb000488 	bl	bee0 <mailbox_read>
    acbc:	e1a05000 	mov	r5, r0
    acc0:	e30f0af8 	movw	r0, #64248	@ 0xfaf8
    acc4:	e3400000 	movt	r0, #0
    acc8:	eb000dee 	bl	e488 <printk>
    accc:	e1a00004 	mov	r0, r4
    acd0:	ebffffbb 	bl	abc4 <dump_framebuffer_info>
    acd4:	e3750001 	cmn	r5, #1
    acd8:	0a000035 	beq	adb4 <framebuffer_init+0x184>
    acdc:	e1a01006 	mov	r1, r6
    ace0:	e1a00004 	mov	r0, r4
    ace4:	eb0008ec 	bl	d09c <flush_dcache>
    ace8:	e5941020 	ldr	r1, [r4, #32]
    acec:	e3510000 	cmp	r1, #0
    acf0:	1a000010 	bne	ad38 <framebuffer_init+0x108>
    acf4:	e5942000 	ldr	r2, [r4]
    acf8:	e3043724 	movw	r3, #18212	@ 0x4724
    acfc:	e3403003 	movt	r3, #3
    ad00:	e5940004 	ldr	r0, [r4, #4]
    ad04:	e5831024 	str	r1, [r3, #36]	@ 0x24
    ad08:	e5832004 	str	r2, [r3, #4]
    ad0c:	e5941010 	ldr	r1, [r4, #16]
    ad10:	e5942014 	ldr	r2, [r4, #20]
    ad14:	e5830008 	str	r0, [r3, #8]
    ad18:	e5831014 	str	r1, [r3, #20]
    ad1c:	e5832018 	str	r2, [r3, #24]
    ad20:	e30f0b48 	movw	r0, #64328	@ 0xfb48
    ad24:	e3400000 	movt	r0, #0
    ad28:	eb000dd6 	bl	e488 <printk>
    ad2c:	e5940020 	ldr	r0, [r4, #32]
    ad30:	e28dd030 	add	sp, sp, #48	@ 0x30
    ad34:	e8bd8070 	pop	{r4, r5, r6, pc}
    ad38:	e30f0b1c 	movw	r0, #64284	@ 0xfb1c
    ad3c:	e3400000 	movt	r0, #0
    ad40:	eb000dd0 	bl	e488 <printk>
    ad44:	e5941020 	ldr	r1, [r4, #32]
    ad48:	e30f0b2c 	movw	r0, #64300	@ 0xfb2c
    ad4c:	e3400000 	movt	r0, #0
    ad50:	e3c11103 	bic	r1, r1, #-1073741824	@ 0xc0000000
    ad54:	e5841020 	str	r1, [r4, #32]
    ad58:	eb000dca 	bl	e488 <printk>
    ad5c:	e5940020 	ldr	r0, [r4, #32]
    ad60:	e3043724 	movw	r3, #18212	@ 0x4724
    ad64:	e3403003 	movt	r3, #3
    ad68:	e8940006 	ldm	r4, {r1, r2}
    ad6c:	e5830024 	str	r0, [r3, #36]	@ 0x24
    ad70:	e3500000 	cmp	r0, #0
    ad74:	e5832008 	str	r2, [r3, #8]
    ad78:	e5942014 	ldr	r2, [r4, #20]
    ad7c:	e5831004 	str	r1, [r3, #4]
    ad80:	e5832018 	str	r2, [r3, #24]
    ad84:	e5942010 	ldr	r2, [r4, #16]
    ad88:	e5832014 	str	r2, [r3, #20]
    ad8c:	13a02001 	movne	r2, #1
    ad90:	15832000 	strne	r2, [r3]
    ad94:	0affffe1 	beq	ad20 <framebuffer_init+0xf0>
    ad98:	e28dd030 	add	sp, sp, #48	@ 0x30
    ad9c:	e8bd8070 	pop	{r4, r5, r6, pc}
    ada0:	e30f0ae0 	movw	r0, #64224	@ 0xfae0
    ada4:	e3400000 	movt	r0, #0
    ada8:	eb000db6 	bl	e488 <printk>
    adac:	e3a00000 	mov	r0, #0
    adb0:	eafffff8 	b	ad98 <framebuffer_init+0x168>
    adb4:	e30f0b04 	movw	r0, #64260	@ 0xfb04
    adb8:	e3400000 	movt	r0, #0
    adbc:	eb000db1 	bl	e488 <printk>
    adc0:	eafffff9 	b	adac <framebuffer_init+0x17c>

0000adc4 <framebuffer_hline>:
    adc4:	e1510002 	cmp	r1, r2
    adc8:	aa000018 	bge	ae30 <framebuffer_hline+0x6c>
    adcc:	e92d4030 	push	{r4, r5, lr}
    add0:	e3044724 	movw	r4, #18212	@ 0x4724
    add4:	e3404003 	movt	r4, #3
    add8:	e3a05003 	mov	r5, #3
    addc:	e1a0c840 	asr	ip, r0, #16
    ade0:	e5944014 	ldr	r4, [r4, #20]
    ade4:	e6efc07c 	uxtb	ip, ip
    ade8:	e1a0e440 	asr	lr, r0, #8
    adec:	e6ef0070 	uxtb	r0, r0
    adf0:	e0030394 	mul	r3, r4, r3
    adf4:	e3044750 	movw	r4, #18256	@ 0x4750
    adf8:	e6efe07e 	uxtb	lr, lr
    adfc:	e0213195 	mla	r1, r5, r1, r3
    ae00:	e3404003 	movt	r4, #3
    ae04:	e0833004 	add	r3, r3, r4
    ae08:	e0223295 	mla	r2, r5, r2, r3
    ae0c:	e0811004 	add	r1, r1, r4
    ae10:	e5c10000 	strb	r0, [r1]
    ae14:	e2811003 	add	r1, r1, #3
    ae18:	e541e002 	strb	lr, [r1, #-2]
    ae1c:	e541c001 	strb	ip, [r1, #-1]
    ae20:	e1520001 	cmp	r2, r1
    ae24:	1afffff9 	bne	ae10 <framebuffer_hline+0x4c>
    ae28:	e3a00000 	mov	r0, #0
    ae2c:	e8bd8030 	pop	{r4, r5, pc}
    ae30:	e3a00000 	mov	r0, #0
    ae34:	e12fff1e 	bx	lr

0000ae38 <framebuffer_vline>:
    ae38:	e1510002 	cmp	r1, r2
    ae3c:	aa000017 	bge	aea0 <framebuffer_vline+0x68>
    ae40:	e92d40f0 	push	{r4, r5, r6, r7, lr}
    ae44:	e6efc070 	uxtb	ip, r0
    ae48:	e1a0e840 	asr	lr, r0, #16
    ae4c:	e3a07003 	mov	r7, #3
    ae50:	e1a04440 	asr	r4, r0, #8
    ae54:	e3040724 	movw	r0, #18212	@ 0x4724
    ae58:	e3400003 	movt	r0, #3
    ae5c:	e3046750 	movw	r6, #18256	@ 0x4750
    ae60:	e3406003 	movt	r6, #3
    ae64:	e6ef4074 	uxtb	r4, r4
    ae68:	e5905014 	ldr	r5, [r0, #20]
    ae6c:	e6efe07e 	uxtb	lr, lr
    ae70:	e0000591 	mul	r0, r1, r5
    ae74:	e0230397 	mla	r3, r7, r3, r0
    ae78:	e0833006 	add	r3, r3, r6
    ae7c:	e5c3c000 	strb	ip, [r3]
    ae80:	e2811001 	add	r1, r1, #1
    ae84:	e1520001 	cmp	r2, r1
    ae88:	e5c34001 	strb	r4, [r3, #1]
    ae8c:	e5c3e002 	strb	lr, [r3, #2]
    ae90:	e0833005 	add	r3, r3, r5
    ae94:	1afffff8 	bne	ae7c <framebuffer_vline+0x44>
    ae98:	e3a00000 	mov	r0, #0
    ae9c:	e8bd80f0 	pop	{r4, r5, r6, r7, pc}
    aea0:	e3a00000 	mov	r0, #0
    aea4:	e12fff1e 	bx	lr

0000aea8 <framebuffer_clear_screen>:
    aea8:	e3042724 	movw	r2, #18212	@ 0x4724
    aeac:	e3402003 	movt	r2, #3
    aeb0:	e92d4070 	push	{r4, r5, r6, lr}
    aeb4:	e5925008 	ldr	r5, [r2, #8]
    aeb8:	e3550000 	cmp	r5, #0
    aebc:	da000019 	ble	af28 <framebuffer_clear_screen+0x80>
    aec0:	e5921004 	ldr	r1, [r2, #4]
    aec4:	e3a04003 	mov	r4, #3
    aec8:	e5926014 	ldr	r6, [r2, #20]
    aecc:	e3042750 	movw	r2, #18256	@ 0x4750
    aed0:	e0040194 	mul	r4, r4, r1
    aed4:	e3402003 	movt	r2, #3
    aed8:	e3a0e000 	mov	lr, #0
    aedc:	e1a03840 	asr	r3, r0, #16
    aee0:	e0842002 	add	r2, r4, r2
    aee4:	e1a0c440 	asr	ip, r0, #8
    aee8:	e3510000 	cmp	r1, #0
    aeec:	da00000f 	ble	af30 <framebuffer_clear_screen+0x88>
    aef0:	e6ef1070 	uxtb	r1, r0
    aef4:	e6efc07c 	uxtb	ip, ip
    aef8:	e6ef0073 	uxtb	r0, r3
    aefc:	e0423004 	sub	r3, r2, r4
    af00:	e5c31000 	strb	r1, [r3]
    af04:	e2833003 	add	r3, r3, #3
    af08:	e543c002 	strb	ip, [r3, #-2]
    af0c:	e5430001 	strb	r0, [r3, #-1]
    af10:	e1520003 	cmp	r2, r3
    af14:	1afffff9 	bne	af00 <framebuffer_clear_screen+0x58>
    af18:	e0822006 	add	r2, r2, r6
    af1c:	e28ee001 	add	lr, lr, #1
    af20:	e155000e 	cmp	r5, lr
    af24:	1afffff4 	bne	aefc <framebuffer_clear_screen+0x54>
    af28:	e3a00000 	mov	r0, #0
    af2c:	e8bd8070 	pop	{r4, r5, r6, pc}
    af30:	e0822006 	add	r2, r2, r6
    af34:	e28ee001 	add	lr, lr, #1
    af38:	e15e0005 	cmp	lr, r5
    af3c:	1affffe9 	bne	aee8 <framebuffer_clear_screen+0x40>
    af40:	eafffff8 	b	af28 <framebuffer_clear_screen+0x80>

0000af44 <framebuffer_putpixel>:
    af44:	e3043724 	movw	r3, #18212	@ 0x4724
    af48:	e3403003 	movt	r3, #3
    af4c:	e593c014 	ldr	ip, [r3, #20]
    af50:	e3a03003 	mov	r3, #3
    af54:	e0010193 	mul	r1, r3, r1
    af58:	e3043750 	movw	r3, #18256	@ 0x4750
    af5c:	e022129c 	mla	r2, ip, r2, r1
    af60:	e3403003 	movt	r3, #3
    af64:	e1a0c440 	asr	ip, r0, #8
    af68:	e2831001 	add	r1, r3, #1
    af6c:	e7c30002 	strb	r0, [r3, r2]
    af70:	e2833002 	add	r3, r3, #2
    af74:	e1a00840 	asr	r0, r0, #16
    af78:	e7c1c002 	strb	ip, [r1, r2]
    af7c:	e7c30002 	strb	r0, [r3, r2]
    af80:	e3a00000 	mov	r0, #0
    af84:	e12fff1e 	bx	lr

0000af88 <framebuffer_push>:
    af88:	e3043724 	movw	r3, #18212	@ 0x4724
    af8c:	e3a02003 	mov	r2, #3
    af90:	e3403003 	movt	r3, #3
    af94:	e3041750 	movw	r1, #18256	@ 0x4750
    af98:	e92d4010 	push	{r4, lr}
    af9c:	e9935000 	ldmib	r3, {ip, lr}
    afa0:	e3401003 	movt	r1, #3
    afa4:	e00c0c9e 	mul	ip, lr, ip
    afa8:	e5930024 	ldr	r0, [r3, #36]	@ 0x24
    afac:	e0020c92 	mul	r2, r2, ip
    afb0:	eb000bb4 	bl	de88 <memcpy>
    afb4:	e3a00000 	mov	r0, #0
    afb8:	e8bd8010 	pop	{r4, pc}

0000afbc <framebuffer_gradient>:
    afbc:	e3043724 	movw	r3, #18212	@ 0x4724
    afc0:	e3a02003 	mov	r2, #3
    afc4:	e3403003 	movt	r3, #3
    afc8:	e3041750 	movw	r1, #18256	@ 0x4750
    afcc:	e92d4010 	push	{r4, lr}
    afd0:	e9935000 	ldmib	r3, {ip, lr}
    afd4:	e3401003 	movt	r1, #3
    afd8:	e00c0c9e 	mul	ip, lr, ip
    afdc:	e5930024 	ldr	r0, [r3, #36]	@ 0x24
    afe0:	e0020c92 	mul	r2, r2, ip
    afe4:	eb000ba7 	bl	de88 <memcpy>
    afe8:	e3a00000 	mov	r0, #0
    afec:	e8bd8010 	pop	{r4, pc}

0000aff0 <framebuffer_load>:
    aff0:	e92d47f0 	push	{r4, r5, r6, r7, r8, r9, sl, lr}
    aff4:	e2517000 	subs	r7, r1, #0
    aff8:	d3048724 	movwle	r8, #18212	@ 0x4724
    affc:	d3408003 	movtle	r8, #3
    b000:	da000013 	ble	b054 <framebuffer_load+0x64>
    b004:	e3520000 	cmp	r2, #0
    b008:	e2826007 	add	r6, r2, #7
    b00c:	a1a06002 	movge	r6, r2
    b010:	e3048724 	movw	r8, #18212	@ 0x4724
    b014:	e3408003 	movt	r8, #3
    b018:	e3049750 	movw	r9, #18256	@ 0x4750
    b01c:	e1a061c6 	asr	r6, r6, #3
    b020:	e1a05003 	mov	r5, r3
    b024:	e3409003 	movt	r9, #3
    b028:	e3a04000 	mov	r4, #0
    b02c:	e0060690 	mul	r6, r0, r6
    b030:	e5980014 	ldr	r0, [r8, #20]
    b034:	e1a01005 	mov	r1, r5
    b038:	e1a02006 	mov	r2, r6
    b03c:	e2855e32 	add	r5, r5, #800	@ 0x320
    b040:	e0209490 	mla	r0, r0, r4, r9
    b044:	e2844001 	add	r4, r4, #1
    b048:	eb000b8e 	bl	de88 <memcpy>
    b04c:	e1570004 	cmp	r7, r4
    b050:	1afffff6 	bne	b030 <framebuffer_load+0x40>
    b054:	e5981008 	ldr	r1, [r8, #8]
    b058:	e3a02003 	mov	r2, #3
    b05c:	e5983004 	ldr	r3, [r8, #4]
    b060:	e5980024 	ldr	r0, [r8, #36]	@ 0x24
    b064:	e0030391 	mul	r3, r1, r3
    b068:	e3041750 	movw	r1, #18256	@ 0x4750
    b06c:	e3401003 	movt	r1, #3
    b070:	e0020392 	mul	r2, r2, r3
    b074:	eb000b83 	bl	de88 <memcpy>
    b078:	e3a00000 	mov	r0, #0
    b07c:	e8bd87f0 	pop	{r4, r5, r6, r7, r8, r9, sl, pc}

0000b080 <framebuffer_console_putchar.part.0>:
    b080:	e92d4ff0 	push	{r4, r5, r6, r7, r8, r9, sl, fp, lr}
    b084:	e3015004 	movw	r5, #4100	@ 0x1004
    b088:	e3405003 	movt	r5, #3
    b08c:	e24dd00c 	sub	sp, sp, #12
    b090:	e595e000 	ldr	lr, [r5]
    b094:	e58d3004 	str	r3, [sp, #4]
    b098:	e35e0000 	cmp	lr, #0
    b09c:	da000020 	ble	b124 <framebuffer_console_putchar.part.0+0xa4>
    b0a0:	e59d8030 	ldr	r8, [sp, #48]	@ 0x30
    b0a4:	e1a09000 	mov	r9, r0
    b0a8:	e1a07001 	mov	r7, r1
    b0ac:	e1a06002 	mov	r6, r2
    b0b0:	e3a0b000 	mov	fp, #0
    b0b4:	e59da004 	ldr	sl, [sp, #4]
    b0b8:	e3a04007 	mov	r4, #7
    b0bc:	ea000005 	b	b0d8 <framebuffer_console_putchar.part.0+0x58>
    b0c0:	e3570000 	cmp	r7, #0
    b0c4:	1a000019 	bne	b130 <framebuffer_console_putchar.part.0+0xb0>
    b0c8:	e2444001 	sub	r4, r4, #1
    b0cc:	e28aa001 	add	sl, sl, #1
    b0d0:	e3740001 	cmn	r4, #1
    b0d4:	0a00000e 	beq	b114 <framebuffer_console_putchar.part.0+0x94>
    b0d8:	e5953004 	ldr	r3, [r5, #4]
    b0dc:	e023369e 	mla	r3, lr, r6, r3
    b0e0:	e7d3c00b 	ldrb	ip, [r3, fp]
    b0e4:	e1a0c45c 	asr	ip, ip, r4
    b0e8:	e31c0001 	tst	ip, #1
    b0ec:	0afffff3 	beq	b0c0 <framebuffer_console_putchar.part.0+0x40>
    b0f0:	e1a0100a 	mov	r1, sl
    b0f4:	e1a02008 	mov	r2, r8
    b0f8:	e1a00009 	mov	r0, r9
    b0fc:	e2444001 	sub	r4, r4, #1
    b100:	e28aa001 	add	sl, sl, #1
    b104:	ebffff8e 	bl	af44 <framebuffer_putpixel>
    b108:	e595e000 	ldr	lr, [r5]
    b10c:	e3740001 	cmn	r4, #1
    b110:	1afffff0 	bne	b0d8 <framebuffer_console_putchar.part.0+0x58>
    b114:	e28bb001 	add	fp, fp, #1
    b118:	e2888001 	add	r8, r8, #1
    b11c:	e15b000e 	cmp	fp, lr
    b120:	baffffe3 	blt	b0b4 <framebuffer_console_putchar.part.0+0x34>
    b124:	e3a00000 	mov	r0, #0
    b128:	e28dd00c 	add	sp, sp, #12
    b12c:	e8bd8ff0 	pop	{r4, r5, r6, r7, r8, r9, sl, fp, pc}
    b130:	e1a0100a 	mov	r1, sl
    b134:	e1a02008 	mov	r2, r8
    b138:	e1a00007 	mov	r0, r7
    b13c:	ebffff80 	bl	af44 <framebuffer_putpixel>
    b140:	e595e000 	ldr	lr, [r5]
    b144:	eaffffdf 	b	b0c8 <framebuffer_console_putchar.part.0+0x48>

0000b148 <framebuffer_console_putchar>:
    b148:	e304c750 	movw	ip, #18256	@ 0x4750
    b14c:	e340c0c3 	movt	ip, #195	@ 0xc3
    b150:	e52de004 	push	{lr}		@ (str lr, [sp, #-4]!)
    b154:	e59cc000 	ldr	ip, [ip]
    b158:	e59de004 	ldr	lr, [sp, #4]
    b15c:	e35c0000 	cmp	ip, #0
    b160:	0a000002 	beq	b170 <framebuffer_console_putchar+0x28>
    b164:	e58de004 	str	lr, [sp, #4]
    b168:	e49de004 	pop	{lr}		@ (ldr lr, [sp], #4)
    b16c:	eaffffc3 	b	b080 <framebuffer_console_putchar.part.0>
    b170:	e3e00012 	mvn	r0, #18
    b174:	e49df004 	pop	{pc}		@ (ldr pc, [sp], #4)

0000b178 <framebuffer_console_clear>:
    b178:	e92d4010 	push	{r4, lr}
    b17c:	e3a00000 	mov	r0, #0
    b180:	ebffff48 	bl	aea8 <framebuffer_clear_screen>
    b184:	e59fe048 	ldr	lr, [pc, #72]	@ b1d4 <framebuffer_console_clear+0x5c>
    b188:	e302c020 	movw	ip, #8224	@ 0x2020
    b18c:	e342c020 	movt	ip, #8224	@ 0x2020
    b190:	e3000707 	movw	r0, #1799	@ 0x707
    b194:	e3400707 	movt	r0, #1799	@ 0x707
    b198:	e28e4c16 	add	r4, lr, #5632	@ 0x1600
    b19c:	e28e1d2d 	add	r1, lr, #2880	@ 0xb40
    b1a0:	e2844030 	add	r4, r4, #48	@ 0x30
    b1a4:	e2413050 	sub	r3, r1, #80	@ 0x50
    b1a8:	e24e2004 	sub	r2, lr, #4
    b1ac:	e5a2c004 	str	ip, [r2, #4]!
    b1b0:	e4830004 	str	r0, [r3], #4
    b1b4:	e1530001 	cmp	r3, r1
    b1b8:	1afffffb 	bne	b1ac <framebuffer_console_clear+0x34>
    b1bc:	e2831050 	add	r1, r3, #80	@ 0x50
    b1c0:	e28ee050 	add	lr, lr, #80	@ 0x50
    b1c4:	e1510004 	cmp	r1, r4
    b1c8:	1afffff5 	bne	b1a4 <framebuffer_console_clear+0x2c>
    b1cc:	e3a00000 	mov	r0, #0
    b1d0:	e8bd8010 	pop	{r4, pc}
    b1d4:	00c34754 	sbceq	r4, r3, r4, asr r7

0000b1d8 <framebuffer_console_home>:
    b1d8:	e3063748 	movw	r3, #26440	@ 0x6748
    b1dc:	e3a00000 	mov	r0, #0
    b1e0:	e34030c3 	movt	r3, #195	@ 0xc3
    b1e4:	e5030a14 	str	r0, [r3, #-2580]	@ 0xfffff5ec
    b1e8:	e5030a10 	str	r0, [r3, #-2576]	@ 0xfffff5f0
    b1ec:	e12fff1e 	bx	lr

0000b1f0 <framebuffer_console_push>:
    b1f0:	e92d4ff0 	push	{r4, r5, r6, r7, r8, r9, sl, fp, lr}
    b1f4:	e24dd014 	sub	sp, sp, #20
    b1f8:	ebfffe88 	bl	ac20 <framebuffer_ready>
    b1fc:	e3500000 	cmp	r0, #0
    b200:	0a000029 	beq	b2ac <framebuffer_console_push+0xbc>
    b204:	e59fb0a8 	ldr	fp, [pc, #168]	@ b2b4 <framebuffer_console_push+0xc4>
    b208:	e30f5000 	movw	r5, #61440	@ 0xf000
    b20c:	e3405000 	movt	r5, #0
    b210:	e3018004 	movw	r8, #4100	@ 0x1004
    b214:	e3408003 	movt	r8, #3
    b218:	e3047750 	movw	r7, #18256	@ 0x4750
    b21c:	e34070c3 	movt	r7, #195	@ 0xc3
    b220:	e24baeaf 	sub	sl, fp, #2800	@ 0xaf0
    b224:	e3a03000 	mov	r3, #0
    b228:	e3a09050 	mov	r9, #80	@ 0x50
    b22c:	e1a06183 	lsl	r6, r3, #3
    b230:	e3a04000 	mov	r4, #0
    b234:	e58d300c 	str	r3, [sp, #12]
    b238:	e0020499 	mul	r2, r9, r4
    b23c:	e5970000 	ldr	r0, [r7]
    b240:	e1a03006 	mov	r3, r6
    b244:	e7db1002 	ldrb	r1, [fp, r2]
    b248:	e598c000 	ldr	ip, [r8]
    b24c:	e3500000 	cmp	r0, #0
    b250:	e7da2002 	ldrb	r2, [sl, r2]
    b254:	e201000f 	and	r0, r1, #15
    b258:	e1a01221 	lsr	r1, r1, #4
    b25c:	e00c049c 	mul	ip, ip, r4
    b260:	e7950100 	ldr	r0, [r5, r0, lsl #2]
    b264:	e2844001 	add	r4, r4, #1
    b268:	e7951101 	ldr	r1, [r5, r1, lsl #2]
    b26c:	0a000001 	beq	b278 <framebuffer_console_push+0x88>
    b270:	e58dc000 	str	ip, [sp]
    b274:	ebffff81 	bl	b080 <framebuffer_console_putchar.part.0>
    b278:	e3540023 	cmp	r4, #35	@ 0x23
    b27c:	1affffed 	bne	b238 <framebuffer_console_push+0x48>
    b280:	e59f2030 	ldr	r2, [pc, #48]	@ b2b8 <framebuffer_console_push+0xc8>
    b284:	e28bb001 	add	fp, fp, #1
    b288:	e59d300c 	ldr	r3, [sp, #12]
    b28c:	e28aa001 	add	sl, sl, #1
    b290:	e152000b 	cmp	r2, fp
    b294:	e2833001 	add	r3, r3, #1
    b298:	1affffe3 	bne	b22c <framebuffer_console_push+0x3c>
    b29c:	ebffff39 	bl	af88 <framebuffer_push>
    b2a0:	e3a00000 	mov	r0, #0
    b2a4:	e28dd014 	add	sp, sp, #20
    b2a8:	e8bd8ff0 	pop	{r4, r5, r6, r7, r8, r9, sl, fp, pc}
    b2ac:	e3e00000 	mvn	r0, #0
    b2b0:	eafffffb 	b	b2a4 <framebuffer_console_push+0xb4>
    b2b4:	00c35244 	sbceq	r5, r3, r4, asr #4
    b2b8:	00c35294 	smulleq	r5, r3, r4, r2

0000b2bc <framebuffer_console_setfont>:
    b2bc:	e3013004 	movw	r3, #4100	@ 0x1004
    b2c0:	e3012014 	movw	r2, #4116	@ 0x1014
    b2c4:	e3403003 	movt	r3, #3
    b2c8:	e30f0b6c 	movw	r0, #64364	@ 0xfb6c
    b2cc:	e92d4010 	push	{r4, lr}
    b2d0:	e3a01010 	mov	r1, #16
    b2d4:	e3402003 	movt	r2, #3
    b2d8:	e3400000 	movt	r0, #0
    b2dc:	e8830006 	stm	r3, {r1, r2}
    b2e0:	eb000c68 	bl	e488 <printk>
    b2e4:	e3a00000 	mov	r0, #0
    b2e8:	ebfffeee 	bl	aea8 <framebuffer_clear_screen>
    b2ec:	e8bd4010 	pop	{r4, lr}
    b2f0:	eaffffbe 	b	b1f0 <framebuffer_console_push>

0000b2f4 <framebuffer_console_write>:
    b2f4:	e3043750 	movw	r3, #18256	@ 0x4750
    b2f8:	e34030c3 	movt	r3, #195	@ 0xc3
    b2fc:	e92d4ff0 	push	{r4, r5, r6, r7, r8, r9, sl, fp, lr}
    b300:	e24dd03c 	sub	sp, sp, #60	@ 0x3c
    b304:	e58d301c 	str	r3, [sp, #28]
    b308:	e5933000 	ldr	r3, [r3]
    b30c:	e3530000 	cmp	r3, #0
    b310:	0a0001c3 	beq	ba24 <framebuffer_console_write+0x730>
    b314:	e59f3728 	ldr	r3, [pc, #1832]	@ ba44 <framebuffer_console_write+0x750>
    b318:	e3064748 	movw	r4, #26440	@ 0x6748
    b31c:	e34040c3 	movt	r4, #195	@ 0xc3
    b320:	e3025020 	movw	r5, #8224	@ 0x2020
    b324:	e3425020 	movt	r5, #8224	@ 0x2020
    b328:	e2833eaa 	add	r3, r3, #2720	@ 0xaa0
    b32c:	e58d3008 	str	r3, [sp, #8]
    b330:	e3007707 	movw	r7, #1799	@ 0x707
    b334:	e3407707 	movt	r7, #1799	@ 0x707
    b338:	e30c2ccd 	movw	r2, #52429	@ 0xcccd
    b33c:	e34c2ccc 	movt	r2, #52428	@ 0xcccc
    b340:	e1a09000 	mov	r9, r0
    b344:	e58d2000 	str	r2, [sp]
    b348:	e283beaf 	add	fp, r3, #2800	@ 0xaf0
    b34c:	e1a08001 	mov	r8, r1
    b350:	e3a0a000 	mov	sl, #0
    b354:	e58da004 	str	sl, [sp, #4]
    b358:	e5143a0c 	ldr	r3, [r4, #-2572]	@ 0xfffff5f4
    b35c:	e3530000 	cmp	r3, #0
    b360:	1a000077 	bne	b544 <framebuffer_console_write+0x250>
    b364:	e5d91000 	ldrb	r1, [r9]
    b368:	e5142a10 	ldr	r2, [r4, #-2576]	@ 0xfffff5f0
    b36c:	e351000d 	cmp	r1, #13
    b370:	0a00014b 	beq	b8a4 <framebuffer_console_write+0x5b0>
    b374:	e2413008 	sub	r3, r1, #8
    b378:	e3530013 	cmp	r3, #19
    b37c:	979ff103 	ldrls	pc, [pc, r3, lsl #2]
    b380:	ea000013 	b	b3d4 <framebuffer_console_write+0xe0>
    b384:	0000b4f4 	strdeq	fp, [r0], -r4
    b388:	0000b4e0 	andeq	fp, r0, r0, ror #9
    b38c:	0000b4bc 			@ <UNDEFINED> instruction: 0x0000b4bc
    b390:	0000b3d4 	ldrdeq	fp, [r0], -r4
    b394:	0000b3d4 	ldrdeq	fp, [r0], -r4
    b398:	0000b3d4 	ldrdeq	fp, [r0], -r4
    b39c:	0000b3d4 	ldrdeq	fp, [r0], -r4
    b3a0:	0000b3d4 	ldrdeq	fp, [r0], -r4
    b3a4:	0000b3d4 	ldrdeq	fp, [r0], -r4
    b3a8:	0000b3d4 	ldrdeq	fp, [r0], -r4
    b3ac:	0000b3d4 	ldrdeq	fp, [r0], -r4
    b3b0:	0000b3d4 	ldrdeq	fp, [r0], -r4
    b3b4:	0000b3d4 	ldrdeq	fp, [r0], -r4
    b3b8:	0000b3d4 	ldrdeq	fp, [r0], -r4
    b3bc:	0000b3d4 	ldrdeq	fp, [r0], -r4
    b3c0:	0000b3d4 	ldrdeq	fp, [r0], -r4
    b3c4:	0000b3d4 	ldrdeq	fp, [r0], -r4
    b3c8:	0000b3d4 	ldrdeq	fp, [r0], -r4
    b3cc:	0000b3d4 	ldrdeq	fp, [r0], -r4
    b3d0:	0000b490 	muleq	r0, r0, r4
    b3d4:	e5143a14 	ldr	r3, [r4, #-2580]	@ 0xfffff5ec
    b3d8:	e3a00050 	mov	r0, #80	@ 0x50
    b3dc:	e59dc01c 	ldr	ip, [sp, #28]
    b3e0:	e3016004 	movw	r6, #4100	@ 0x1004
    b3e4:	e0203290 	mla	r0, r0, r2, r3
    b3e8:	e3406003 	movt	r6, #3
    b3ec:	e2833001 	add	r3, r3, #1
    b3f0:	e08c0000 	add	r0, ip, r0
    b3f4:	e596c008 	ldr	ip, [r6, #8]
    b3f8:	e5d0e004 	ldrb	lr, [r0, #4]
    b3fc:	e5c01004 	strb	r1, [r0, #4]
    b400:	e20cc00f 	and	ip, ip, #15
    b404:	e5141a08 	ldr	r1, [r4, #-2568]	@ 0xfffff5f8
    b408:	e35e0020 	cmp	lr, #32
    b40c:	e5043a14 	str	r3, [r4, #-2580]	@ 0xfffff5ec
    b410:	e18cc201 	orr	ip, ip, r1, lsl #4
    b414:	e59d1004 	ldr	r1, [sp, #4]
    b418:	13a01001 	movne	r1, #1
    b41c:	e5c0caf4 	strb	ip, [r0, #2804]	@ 0xaf4
    b420:	e58d1004 	str	r1, [sp, #4]
    b424:	e3530000 	cmp	r3, #0
    b428:	ba00001d 	blt	b4a4 <framebuffer_console_write+0x1b0>
    b42c:	e3520000 	cmp	r2, #0
    b430:	ba000037 	blt	b514 <framebuffer_console_write+0x220>
    b434:	e353004f 	cmp	r3, #79	@ 0x4f
    b438:	da000007 	ble	b45c <framebuffer_console_write+0x168>
    b43c:	e59d1000 	ldr	r1, [sp]
    b440:	e2822001 	add	r2, r2, #1
    b444:	e5042a10 	str	r2, [r4, #-2576]	@ 0xfffff5f0
    b448:	e0810391 	umull	r0, r1, r1, r3
    b44c:	e3a00050 	mov	r0, #80	@ 0x50
    b450:	e1a01321 	lsr	r1, r1, #6
    b454:	e0633190 	mls	r3, r0, r1, r3
    b458:	e5043a14 	str	r3, [r4, #-2580]	@ 0xfffff5ec
    b45c:	e3520022 	cmp	r2, #34	@ 0x22
    b460:	ca00011e 	bgt	b8e0 <framebuffer_console_write+0x5ec>
    b464:	e28aa001 	add	sl, sl, #1
    b468:	e2899001 	add	r9, r9, #1
    b46c:	e15a0008 	cmp	sl, r8
    b470:	1affffb8 	bne	b358 <framebuffer_console_write+0x64>
    b474:	e59d3004 	ldr	r3, [sp, #4]
    b478:	e3530000 	cmp	r3, #0
    b47c:	1a000165 	bne	ba18 <framebuffer_console_write+0x724>
    b480:	ebffff5a 	bl	b1f0 <framebuffer_console_push>
    b484:	e3a00000 	mov	r0, #0
    b488:	e28dd03c 	add	sp, sp, #60	@ 0x3c
    b48c:	e8bd8ff0 	pop	{r4, r5, r6, r7, r8, r9, sl, fp, pc}
    b490:	e5143a14 	ldr	r3, [r4, #-2580]	@ 0xfffff5ec
    b494:	e3a01001 	mov	r1, #1
    b498:	e5041a0c 	str	r1, [r4, #-2572]	@ 0xfffff5f4
    b49c:	e3530000 	cmp	r3, #0
    b4a0:	aaffffe1 	bge	b42c <framebuffer_console_write+0x138>
    b4a4:	e3520000 	cmp	r2, #0
    b4a8:	e3a03000 	mov	r3, #0
    b4ac:	e5043a14 	str	r3, [r4, #-2580]	@ 0xfffff5ec
    b4b0:	aaffffe9 	bge	b45c <framebuffer_console_write+0x168>
    b4b4:	e5043a10 	str	r3, [r4, #-2576]	@ 0xfffff5f0
    b4b8:	eaffffe9 	b	b464 <framebuffer_console_write+0x170>
    b4bc:	e2822001 	add	r2, r2, #1
    b4c0:	e3a03000 	mov	r3, #0
    b4c4:	e5042a10 	str	r2, [r4, #-2576]	@ 0xfffff5f0
    b4c8:	e3520000 	cmp	r2, #0
    b4cc:	e5043a14 	str	r3, [r4, #-2580]	@ 0xfffff5ec
    b4d0:	aaffffe1 	bge	b45c <framebuffer_console_write+0x168>
    b4d4:	e3a03000 	mov	r3, #0
    b4d8:	e5043a10 	str	r3, [r4, #-2576]	@ 0xfffff5f0
    b4dc:	eaffffe0 	b	b464 <framebuffer_console_write+0x170>
    b4e0:	e5143a14 	ldr	r3, [r4, #-2580]	@ 0xfffff5ec
    b4e4:	e2833008 	add	r3, r3, #8
    b4e8:	e3c33007 	bic	r3, r3, #7
    b4ec:	e5043a14 	str	r3, [r4, #-2580]	@ 0xfffff5ec
    b4f0:	eaffffcb 	b	b424 <framebuffer_console_write+0x130>
    b4f4:	e5143a14 	ldr	r3, [r4, #-2580]	@ 0xfffff5ec
    b4f8:	e2533001 	subs	r3, r3, #1
    b4fc:	4a00013c 	bmi	b9f4 <framebuffer_console_write+0x700>
    b500:	e5043a14 	str	r3, [r4, #-2580]	@ 0xfffff5ec
    b504:	e3520000 	cmp	r2, #0
    b508:	e3a01001 	mov	r1, #1
    b50c:	e58d1004 	str	r1, [sp, #4]
    b510:	aaffffc7 	bge	b434 <framebuffer_console_write+0x140>
    b514:	e353004f 	cmp	r3, #79	@ 0x4f
    b518:	e3a02000 	mov	r2, #0
    b51c:	e5042a10 	str	r2, [r4, #-2576]	@ 0xfffff5f0
    b520:	daffffcf 	ble	b464 <framebuffer_console_write+0x170>
    b524:	e59d2000 	ldr	r2, [sp]
    b528:	e0821392 	umull	r1, r2, r2, r3
    b52c:	e3a01050 	mov	r1, #80	@ 0x50
    b530:	e1a02322 	lsr	r2, r2, #6
    b534:	e0633291 	mls	r3, r1, r2, r3
    b538:	e5043a14 	str	r3, [r4, #-2580]	@ 0xfffff5ec
    b53c:	e3a03001 	mov	r3, #1
    b540:	eaffffdb 	b	b4b4 <framebuffer_console_write+0x1c0>
    b544:	e3530001 	cmp	r3, #1
    b548:	0a0000d7 	beq	b8ac <framebuffer_console_write+0x5b8>
    b54c:	e3530002 	cmp	r3, #2
    b550:	0a0000f8 	beq	b938 <framebuffer_console_write+0x644>
    b554:	e3530003 	cmp	r3, #3
    b558:	15143a14 	ldrne	r3, [r4, #-2580]	@ 0xfffff5ec
    b55c:	15142a10 	ldrne	r2, [r4, #-2576]	@ 0xfffff5f0
    b560:	1affffaf 	bne	b424 <framebuffer_console_write+0x130>
    b564:	e51419dc 	ldr	r1, [r4, #-2524]	@ 0xfffff624
    b568:	e3016004 	movw	r6, #4100	@ 0x1004
    b56c:	e3406003 	movt	r6, #3
    b570:	e2413041 	sub	r3, r1, #65	@ 0x41
    b574:	e353002c 	cmp	r3, #44	@ 0x2c
    b578:	979ff103 	ldrls	pc, [pc, r3, lsl #2]
    b57c:	ea00002c 	b	b634 <framebuffer_console_write+0x340>
    b580:	0000b884 	andeq	fp, r0, r4, lsl #17
    b584:	0000b864 	andeq	fp, r0, r4, ror #16
    b588:	0000b844 	andeq	fp, r0, r4, asr #16
    b58c:	0000b824 	andeq	fp, r0, r4, lsr #16
    b590:	0000b634 	andeq	fp, r0, r4, lsr r6
    b594:	0000b634 	andeq	fp, r0, r4, lsr r6
    b598:	0000b634 	andeq	fp, r0, r4, lsr r6
    b59c:	0000b77c 	andeq	fp, r0, ip, ror r7
    b5a0:	0000b634 	andeq	fp, r0, r4, lsr r6
    b5a4:	0000b758 	andeq	fp, r0, r8, asr r7
    b5a8:	0000b634 	andeq	fp, r0, r4, lsr r6
    b5ac:	0000b634 	andeq	fp, r0, r4, lsr r6
    b5b0:	0000b634 	andeq	fp, r0, r4, lsr r6
    b5b4:	0000b634 	andeq	fp, r0, r4, lsr r6
    b5b8:	0000b634 	andeq	fp, r0, r4, lsr r6
    b5bc:	0000b634 	andeq	fp, r0, r4, lsr r6
    b5c0:	0000b634 	andeq	fp, r0, r4, lsr r6
    b5c4:	0000b634 	andeq	fp, r0, r4, lsr r6
    b5c8:	0000b634 	andeq	fp, r0, r4, lsr r6
    b5cc:	0000b634 	andeq	fp, r0, r4, lsr r6
    b5d0:	0000b634 	andeq	fp, r0, r4, lsr r6
    b5d4:	0000b634 	andeq	fp, r0, r4, lsr r6
    b5d8:	0000b634 	andeq	fp, r0, r4, lsr r6
    b5dc:	0000b634 	andeq	fp, r0, r4, lsr r6
    b5e0:	0000b634 	andeq	fp, r0, r4, lsr r6
    b5e4:	0000b634 	andeq	fp, r0, r4, lsr r6
    b5e8:	0000b634 	andeq	fp, r0, r4, lsr r6
    b5ec:	0000b634 	andeq	fp, r0, r4, lsr r6
    b5f0:	0000b634 	andeq	fp, r0, r4, lsr r6
    b5f4:	0000b634 	andeq	fp, r0, r4, lsr r6
    b5f8:	0000b634 	andeq	fp, r0, r4, lsr r6
    b5fc:	0000b634 	andeq	fp, r0, r4, lsr r6
    b600:	0000b634 	andeq	fp, r0, r4, lsr r6
    b604:	0000b634 	andeq	fp, r0, r4, lsr r6
    b608:	0000b634 	andeq	fp, r0, r4, lsr r6
    b60c:	0000b634 	andeq	fp, r0, r4, lsr r6
    b610:	0000b634 	andeq	fp, r0, r4, lsr r6
    b614:	0000b634 	andeq	fp, r0, r4, lsr r6
    b618:	0000b634 	andeq	fp, r0, r4, lsr r6
    b61c:	0000b634 	andeq	fp, r0, r4, lsr r6
    b620:	0000b634 	andeq	fp, r0, r4, lsr r6
    b624:	0000b634 	andeq	fp, r0, r4, lsr r6
    b628:	0000b634 	andeq	fp, r0, r4, lsr r6
    b62c:	0000b634 	andeq	fp, r0, r4, lsr r6
    b630:	0000b65c 	andeq	fp, r0, ip, asr r6
    b634:	e30f0bb4 	movw	r0, #64436	@ 0xfbb4
    b638:	e3400000 	movt	r0, #0
    b63c:	eb000b91 	bl	e488 <printk>
    b640:	e5143a14 	ldr	r3, [r4, #-2580]	@ 0xfffff5ec
    b644:	e5142a10 	ldr	r2, [r4, #-2576]	@ 0xfffff5f0
    b648:	e3e01000 	mvn	r1, #0
    b64c:	e586100c 	str	r1, [r6, #12]
    b650:	e3a01000 	mov	r1, #0
    b654:	e5041a0c 	str	r1, [r4, #-2572]	@ 0xfffff5f4
    b658:	eaffff71 	b	b424 <framebuffer_console_write+0x130>
    b65c:	e596100c 	ldr	r1, [r6, #12]
    b660:	e5142a10 	ldr	r2, [r4, #-2576]	@ 0xfffff5f0
    b664:	e5143a14 	ldr	r3, [r4, #-2580]	@ 0xfffff5ec
    b668:	e3510000 	cmp	r1, #0
    b66c:	dafffff5 	ble	b648 <framebuffer_console_write+0x354>
    b670:	e596e008 	ldr	lr, [r6, #8]
    b674:	e3a0c000 	mov	ip, #0
    b678:	e59f03c8 	ldr	r0, [pc, #968]	@ ba48 <framebuffer_console_write+0x754>
    b67c:	e58de014 	str	lr, [sp, #20]
    b680:	e0801101 	add	r1, r0, r1, lsl #2
    b684:	e514e9d8 	ldr	lr, [r4, #-2520]	@ 0xfffff628
    b688:	e58da020 	str	sl, [sp, #32]
    b68c:	e1a0a00c 	mov	sl, ip
    b690:	e58d9024 	str	r9, [sp, #36]	@ 0x24
    b694:	e1cd22f8 	strd	r2, [sp, #40]	@ 0x28
    b698:	e58d4030 	str	r4, [sp, #48]	@ 0x30
    b69c:	e1a0400c 	mov	r4, ip
    b6a0:	e58d5034 	str	r5, [sp, #52]	@ 0x34
    b6a4:	e1a05001 	mov	r5, r1
    b6a8:	e59d9014 	ldr	r9, [sp, #20]
    b6ac:	e59d3018 	ldr	r3, [sp, #24]
    b6b0:	e58dc00c 	str	ip, [sp, #12]
    b6b4:	e58dc010 	str	ip, [sp, #16]
    b6b8:	ea000007 	b	b6dc <framebuffer_console_write+0x3e8>
    b6bc:	e3520001 	cmp	r2, #1
    b6c0:	1a0000c1 	bne	b9cc <framebuffer_console_write+0x6d8>
    b6c4:	e1a0c002 	mov	ip, r2
    b6c8:	e3899008 	orr	r9, r9, #8
    b6cc:	e1a0e002 	mov	lr, r2
    b6d0:	e1a0a002 	mov	sl, r2
    b6d4:	e1500005 	cmp	r0, r5
    b6d8:	0a00000b 	beq	b70c <framebuffer_console_write+0x418>
    b6dc:	e4902004 	ldr	r2, [r0], #4
    b6e0:	e2421001 	sub	r1, r2, #1
    b6e4:	e3710003 	cmn	r1, #3
    b6e8:	9afffff3 	bls	b6bc <framebuffer_console_write+0x3c8>
    b6ec:	e1500005 	cmp	r0, r5
    b6f0:	e3a0c001 	mov	ip, #1
    b6f4:	e3a0e000 	mov	lr, #0
    b6f8:	e1a0400c 	mov	r4, ip
    b6fc:	e1a0300e 	mov	r3, lr
    b700:	e1a0a00c 	mov	sl, ip
    b704:	e3a09007 	mov	r9, #7
    b708:	1afffff3 	bne	b6dc <framebuffer_console_write+0x3e8>
    b70c:	e58d400c 	str	r4, [sp, #12]
    b710:	e35c0000 	cmp	ip, #0
    b714:	e59d100c 	ldr	r1, [sp, #12]
    b718:	e1cd43d0 	ldrd	r4, [sp, #48]	@ 0x30
    b71c:	e58d3018 	str	r3, [sp, #24]
    b720:	1504e9d8 	strne	lr, [r4, #-2520]	@ 0xfffff628
    b724:	e3510000 	cmp	r1, #0
    b728:	e58da010 	str	sl, [sp, #16]
    b72c:	159d1018 	ldrne	r1, [sp, #24]
    b730:	e58d9014 	str	r9, [sp, #20]
    b734:	15041a08 	strne	r1, [r4, #-2568]	@ 0xfffff5f8
    b738:	e59d1010 	ldr	r1, [sp, #16]
    b73c:	e59da020 	ldr	sl, [sp, #32]
    b740:	e59d9024 	ldr	r9, [sp, #36]	@ 0x24
    b744:	e3510000 	cmp	r1, #0
    b748:	e1cd22d8 	ldrd	r2, [sp, #40]	@ 0x28
    b74c:	159d1014 	ldrne	r1, [sp, #20]
    b750:	15861008 	strne	r1, [r6, #8]
    b754:	eaffffbb 	b	b648 <framebuffer_console_write+0x354>
    b758:	e5141a04 	ldr	r1, [r4, #-2564]	@ 0xfffff5fc
    b75c:	e3510002 	cmp	r1, #2
    b760:	0a000011 	beq	b7ac <framebuffer_console_write+0x4b8>
    b764:	e30f0b9c 	movw	r0, #64412	@ 0xfb9c
    b768:	e3400000 	movt	r0, #0
    b76c:	eb000b45 	bl	e488 <printk>
    b770:	e5143a14 	ldr	r3, [r4, #-2580]	@ 0xfffff5ec
    b774:	e5142a10 	ldr	r2, [r4, #-2576]	@ 0xfffff5f0
    b778:	eaffffb2 	b	b648 <framebuffer_console_write+0x354>
    b77c:	e5142a04 	ldr	r2, [r4, #-2564]	@ 0xfffff5fc
    b780:	e3720001 	cmn	r2, #1
    b784:	0a00001f 	beq	b808 <framebuffer_console_write+0x514>
    b788:	e596300c 	ldr	r3, [r6, #12]
    b78c:	e2422001 	sub	r2, r2, #1
    b790:	e5042a10 	str	r2, [r4, #-2576]	@ 0xfffff5f0
    b794:	e3530000 	cmp	r3, #0
    b798:	15143a00 	ldrne	r3, [r4, #-2560]	@ 0xfffff600
    b79c:	05143a14 	ldreq	r3, [r4, #-2580]	@ 0xfffff5ec
    b7a0:	12433001 	subne	r3, r3, #1
    b7a4:	15043a14 	strne	r3, [r4, #-2580]	@ 0xfffff5ec
    b7a8:	eaffffa6 	b	b648 <framebuffer_console_write+0x354>
    b7ac:	e3a00000 	mov	r0, #0
    b7b0:	ebfffdbc 	bl	aea8 <framebuffer_clear_screen>
    b7b4:	e59fe290 	ldr	lr, [pc, #656]	@ ba4c <framebuffer_console_write+0x758>
    b7b8:	e302c020 	movw	ip, #8224	@ 0x2020
    b7bc:	e58da00c 	str	sl, [sp, #12]
    b7c0:	e3000707 	movw	r0, #1799	@ 0x707
    b7c4:	e342c020 	movt	ip, #8224	@ 0x2020
    b7c8:	e28e3c16 	add	r3, lr, #5632	@ 0x1600
    b7cc:	e3400707 	movt	r0, #1799	@ 0x707
    b7d0:	e2833030 	add	r3, r3, #48	@ 0x30
    b7d4:	e28e1d2d 	add	r1, lr, #2880	@ 0xb40
    b7d8:	e1a0a003 	mov	sl, r3
    b7dc:	e2413050 	sub	r3, r1, #80	@ 0x50
    b7e0:	e24e2004 	sub	r2, lr, #4
    b7e4:	e5a2c004 	str	ip, [r2, #4]!
    b7e8:	e4830004 	str	r0, [r3], #4
    b7ec:	e1530001 	cmp	r3, r1
    b7f0:	1afffffb 	bne	b7e4 <framebuffer_console_write+0x4f0>
    b7f4:	e2811050 	add	r1, r1, #80	@ 0x50
    b7f8:	e28ee050 	add	lr, lr, #80	@ 0x50
    b7fc:	e15a0001 	cmp	sl, r1
    b800:	1afffff5 	bne	b7dc <framebuffer_console_write+0x4e8>
    b804:	e59da00c 	ldr	sl, [sp, #12]
    b808:	e3a03000 	mov	r3, #0
    b80c:	e5043a14 	str	r3, [r4, #-2580]	@ 0xfffff5ec
    b810:	e5043a10 	str	r3, [r4, #-2576]	@ 0xfffff5f0
    b814:	e5043a0c 	str	r3, [r4, #-2572]	@ 0xfffff5f4
    b818:	e3e03000 	mvn	r3, #0
    b81c:	e586300c 	str	r3, [r6, #12]
    b820:	eaffff0f 	b	b464 <framebuffer_console_write+0x170>
    b824:	e5141a04 	ldr	r1, [r4, #-2564]	@ 0xfffff5fc
    b828:	e5143a14 	ldr	r3, [r4, #-2580]	@ 0xfffff5ec
    b82c:	e5142a10 	ldr	r2, [r4, #-2576]	@ 0xfffff5f0
    b830:	e3710001 	cmn	r1, #1
    b834:	03a01001 	moveq	r1, #1
    b838:	e0433001 	sub	r3, r3, r1
    b83c:	e5043a14 	str	r3, [r4, #-2580]	@ 0xfffff5ec
    b840:	eaffff80 	b	b648 <framebuffer_console_write+0x354>
    b844:	e5143a04 	ldr	r3, [r4, #-2564]	@ 0xfffff5fc
    b848:	e5141a14 	ldr	r1, [r4, #-2580]	@ 0xfffff5ec
    b84c:	e5142a10 	ldr	r2, [r4, #-2576]	@ 0xfffff5f0
    b850:	e3730001 	cmn	r3, #1
    b854:	03a03001 	moveq	r3, #1
    b858:	e0833001 	add	r3, r3, r1
    b85c:	e5043a14 	str	r3, [r4, #-2580]	@ 0xfffff5ec
    b860:	eaffff78 	b	b648 <framebuffer_console_write+0x354>
    b864:	e5142a04 	ldr	r2, [r4, #-2564]	@ 0xfffff5fc
    b868:	e5141a10 	ldr	r1, [r4, #-2576]	@ 0xfffff5f0
    b86c:	e5143a14 	ldr	r3, [r4, #-2580]	@ 0xfffff5ec
    b870:	e3720001 	cmn	r2, #1
    b874:	03a02001 	moveq	r2, #1
    b878:	e0822001 	add	r2, r2, r1
    b87c:	e5042a10 	str	r2, [r4, #-2576]	@ 0xfffff5f0
    b880:	eaffff70 	b	b648 <framebuffer_console_write+0x354>
    b884:	e5141a04 	ldr	r1, [r4, #-2564]	@ 0xfffff5fc
    b888:	e5142a10 	ldr	r2, [r4, #-2576]	@ 0xfffff5f0
    b88c:	e5143a14 	ldr	r3, [r4, #-2580]	@ 0xfffff5ec
    b890:	e3710001 	cmn	r1, #1
    b894:	03a01001 	moveq	r1, #1
    b898:	e0422001 	sub	r2, r2, r1
    b89c:	e5042a10 	str	r2, [r4, #-2576]	@ 0xfffff5f0
    b8a0:	eaffff68 	b	b648 <framebuffer_console_write+0x354>
    b8a4:	e5143a14 	ldr	r3, [r4, #-2580]	@ 0xfffff5ec
    b8a8:	eafffedd 	b	b424 <framebuffer_console_write+0x130>
    b8ac:	e5d91000 	ldrb	r1, [r9]
    b8b0:	e5142a10 	ldr	r2, [r4, #-2576]	@ 0xfffff5f0
    b8b4:	e5143a14 	ldr	r3, [r4, #-2580]	@ 0xfffff5ec
    b8b8:	e351005b 	cmp	r1, #91	@ 0x5b
    b8bc:	1affff63 	bne	b650 <framebuffer_console_write+0x35c>
    b8c0:	e3016004 	movw	r6, #4100	@ 0x1004
    b8c4:	e3e01000 	mvn	r1, #0
    b8c8:	e3406003 	movt	r6, #3
    b8cc:	e5041a04 	str	r1, [r4, #-2564]	@ 0xfffff5fc
    b8d0:	e586100c 	str	r1, [r6, #12]
    b8d4:	e3a01002 	mov	r1, #2
    b8d8:	e5041a0c 	str	r1, [r4, #-2572]	@ 0xfffff5f4
    b8dc:	eafffed0 	b	b424 <framebuffer_console_write+0x130>
    b8e0:	e59f115c 	ldr	r1, [pc, #348]	@ ba44 <framebuffer_console_write+0x750>
    b8e4:	e3a02eaa 	mov	r2, #2720	@ 0xaa0
    b8e8:	e59f6154 	ldr	r6, [pc, #340]	@ ba44 <framebuffer_console_write+0x750>
    b8ec:	e2410050 	sub	r0, r1, #80	@ 0x50
    b8f0:	eb000964 	bl	de88 <memcpy>
    b8f4:	e59d0008 	ldr	r0, [sp, #8]
    b8f8:	e3a02eaa 	mov	r2, #2720	@ 0xaa0
    b8fc:	e2861eaf 	add	r1, r6, #2800	@ 0xaf0
    b900:	eb000960 	bl	de88 <memcpy>
    b904:	e59d3008 	ldr	r3, [sp, #8]
    b908:	e2432054 	sub	r2, r3, #84	@ 0x54
    b90c:	e2863d55 	add	r3, r6, #5440	@ 0x1540
    b910:	e5a25004 	str	r5, [r2, #4]!
    b914:	e4837004 	str	r7, [r3], #4
    b918:	e153000b 	cmp	r3, fp
    b91c:	1afffffb 	bne	b910 <framebuffer_console_write+0x61c>
    b920:	e5143a10 	ldr	r3, [r4, #-2576]	@ 0xfffff5f0
    b924:	e2433001 	sub	r3, r3, #1
    b928:	e5043a10 	str	r3, [r4, #-2576]	@ 0xfffff5f0
    b92c:	e3a03001 	mov	r3, #1
    b930:	e58d3004 	str	r3, [sp, #4]
    b934:	eafffeca 	b	b464 <framebuffer_console_write+0x170>
    b938:	e5d91000 	ldrb	r1, [r9]
    b93c:	e3016004 	movw	r6, #4100	@ 0x1004
    b940:	e3406003 	movt	r6, #3
    b944:	e2412030 	sub	r2, r1, #48	@ 0x30
    b948:	e596300c 	ldr	r3, [r6, #12]
    b94c:	e3520009 	cmp	r2, #9
    b950:	9a00000e 	bls	b990 <framebuffer_console_write+0x69c>
    b954:	e351003b 	cmp	r1, #59	@ 0x3b
    b958:	e2833001 	add	r3, r3, #1
    b95c:	e586300c 	str	r3, [r6, #12]
    b960:	13a03003 	movne	r3, #3
    b964:	150419dc 	strne	r1, [r4, #-2524]	@ 0xfffff624
    b968:	15043a0c 	strne	r3, [r4, #-2572]	@ 0xfffff5f4
    b96c:	1afffeff 	bne	b570 <framebuffer_console_write+0x27c>
    b970:	e353000a 	cmp	r3, #10
    b974:	0a00002c 	beq	ba2c <framebuffer_console_write+0x738>
    b978:	e0843103 	add	r3, r4, r3, lsl #2
    b97c:	e3a02000 	mov	r2, #0
    b980:	e5032a04 	str	r2, [r3, #-2564]	@ 0xfffff5fc
    b984:	e5143a14 	ldr	r3, [r4, #-2580]	@ 0xfffff5ec
    b988:	e5142a10 	ldr	r2, [r4, #-2576]	@ 0xfffff5f0
    b98c:	eafffea4 	b	b424 <framebuffer_console_write+0x130>
    b990:	e3730001 	cmn	r3, #1
    b994:	11a03103 	lslne	r3, r3, #2
    b998:	13a0000a 	movne	r0, #10
    b99c:	10842003 	addne	r2, r4, r3
    b9a0:	03a03000 	moveq	r3, #0
    b9a4:	0586300c 	streq	r3, [r6, #12]
    b9a8:	15122a04 	ldrne	r2, [r2, #-2564]	@ 0xfffff5fc
    b9ac:	05043a04 	streq	r3, [r4, #-2564]	@ 0xfffff5fc
    b9b0:	10221290 	mlane	r2, r0, r2, r1
    b9b4:	e0843003 	add	r3, r4, r3
    b9b8:	12422030 	subne	r2, r2, #48	@ 0x30
    b9bc:	e5032a04 	str	r2, [r3, #-2564]	@ 0xfffff5fc
    b9c0:	e5143a14 	ldr	r3, [r4, #-2580]	@ 0xfffff5ec
    b9c4:	e5142a10 	ldr	r2, [r4, #-2576]	@ 0xfffff5f0
    b9c8:	eafffe95 	b	b424 <framebuffer_console_write+0x130>
    b9cc:	e242101e 	sub	r1, r2, #30
    b9d0:	e3510007 	cmp	r1, #7
    b9d4:	9181918e 	orrls	r9, r1, lr, lsl #3
    b9d8:	93a0a001 	movls	sl, #1
    b9dc:	9affff3c 	bls	b6d4 <framebuffer_console_write+0x3e0>
    b9e0:	e2422028 	sub	r2, r2, #40	@ 0x28
    b9e4:	e3520007 	cmp	r2, #7
    b9e8:	91a03002 	movls	r3, r2
    b9ec:	93a04001 	movls	r4, #1
    b9f0:	eaffff37 	b	b6d4 <framebuffer_console_write+0x3e0>
    b9f4:	e3a03000 	mov	r3, #0
    b9f8:	e3520000 	cmp	r2, #0
    b9fc:	e5043a14 	str	r3, [r4, #-2580]	@ 0xfffff5ec
    ba00:	e3a03001 	mov	r3, #1
    ba04:	e58d3004 	str	r3, [sp, #4]
    ba08:	aafffe93 	bge	b45c <framebuffer_console_write+0x168>
    ba0c:	e3a03000 	mov	r3, #0
    ba10:	e5043a10 	str	r3, [r4, #-2576]	@ 0xfffff5f0
    ba14:	eafffe92 	b	b464 <framebuffer_console_write+0x170>
    ba18:	e3a00000 	mov	r0, #0
    ba1c:	ebfffd21 	bl	aea8 <framebuffer_clear_screen>
    ba20:	eafffe96 	b	b480 <framebuffer_console_write+0x18c>
    ba24:	e3e00012 	mvn	r0, #18
    ba28:	eafffe96 	b	b488 <framebuffer_console_write+0x194>
    ba2c:	e30f0b80 	movw	r0, #64384	@ 0xfb80
    ba30:	e3a03000 	mov	r3, #0
    ba34:	e3400000 	movt	r0, #0
    ba38:	e5043a0c 	str	r3, [r4, #-2572]	@ 0xfffff5f4
    ba3c:	eb000a91 	bl	e488 <printk>
    ba40:	eafffe8b 	b	b474 <framebuffer_console_write+0x180>
    ba44:	00c347a4 	sbceq	r4, r3, r4, lsr #15
    ba48:	00c35d44 	sbceq	r5, r3, r4, asr #26
    ba4c:	00c34754 	sbceq	r4, r3, r4, asr r7

0000ba50 <framebuffer_console_val>:
    ba50:	e3510022 	cmp	r1, #34	@ 0x22
    ba54:	d350004f 	cmple	r0, #79	@ 0x4f
    ba58:	d3043750 	movwle	r3, #18256	@ 0x4750
    ba5c:	d3a02050 	movle	r2, #80	@ 0x50
    ba60:	d34030c3 	movtle	r3, #195	@ 0xc3
    ba64:	d0233192 	mlale	r3, r2, r1, r3
    ba68:	d0830000 	addle	r0, r3, r0
    ba6c:	d5d00004 	ldrble	r0, [r0, #4]
    ba70:	c3e00000 	mvngt	r0, #0
    ba74:	e12fff1e 	bx	lr

0000ba78 <framebuffer_console_init>:
    ba78:	e92d4010 	push	{r4, lr}
    ba7c:	e3a00000 	mov	r0, #0
    ba80:	ebfffd08 	bl	aea8 <framebuffer_clear_screen>
    ba84:	e59f1060 	ldr	r1, [pc, #96]	@ baec <framebuffer_console_init+0x74>
    ba88:	e302e020 	movw	lr, #8224	@ 0x2020
    ba8c:	e342e020 	movt	lr, #8224	@ 0x2020
    ba90:	e300c707 	movw	ip, #1799	@ 0x707
    ba94:	e340c707 	movt	ip, #1799	@ 0x707
    ba98:	e2813eaf 	add	r3, r1, #2800	@ 0xaf0
    ba9c:	e1a04003 	mov	r4, r3
    baa0:	e2412004 	sub	r2, r1, #4
    baa4:	e2830050 	add	r0, r3, #80	@ 0x50
    baa8:	e5a2e004 	str	lr, [r2, #4]!
    baac:	e483c004 	str	ip, [r3], #4
    bab0:	e1530000 	cmp	r3, r0
    bab4:	1afffffb 	bne	baa8 <framebuffer_console_init+0x30>
    bab8:	e2811050 	add	r1, r1, #80	@ 0x50
    babc:	e1510004 	cmp	r1, r4
    bac0:	1afffff6 	bne	baa0 <framebuffer_console_init+0x28>
    bac4:	e3063748 	movw	r3, #26440	@ 0x6748
    bac8:	e3042750 	movw	r2, #18256	@ 0x4750
    bacc:	e34030c3 	movt	r3, #195	@ 0xc3
    bad0:	e3a00000 	mov	r0, #0
    bad4:	e34020c3 	movt	r2, #195	@ 0xc3
    bad8:	e3a01001 	mov	r1, #1
    badc:	e5030a14 	str	r0, [r3, #-2580]	@ 0xfffff5ec
    bae0:	e5030a10 	str	r0, [r3, #-2576]	@ 0xfffff5f0
    bae4:	e5821000 	str	r1, [r2]
    bae8:	e8bd8010 	pop	{r4, pc}
    baec:	00c34754 	sbceq	r4, r3, r4, asr r7

0000baf0 <led_init>:
    baf0:	e92d4010 	push	{r4, lr}
    baf4:	e3054d74 	movw	r4, #23924	@ 0x5d74
    baf8:	e34040c3 	movt	r4, #195	@ 0xc3
    bafc:	e3a03001 	mov	r3, #1
    bb00:	e5843000 	str	r3, [r4]
    bb04:	ebfff34b 	bl	8838 <hardware_get_type>
    bb08:	e3500002 	cmp	r0, #2
    bb0c:	1a00000f 	bne	bb50 <led_init+0x60>
    bb10:	e3a03001 	mov	r3, #1
    bb14:	e3a00010 	mov	r0, #16
    bb18:	e3024014 	movw	r4, #8212	@ 0x2014
    bb1c:	e30f1bfc 	movw	r1, #64508	@ 0xfbfc
    bb20:	e3404003 	movt	r4, #3
    bb24:	e3401000 	movt	r1, #0
    bb28:	e8840009 	stm	r4, {r0, r3}
    bb2c:	eb00010f 	bl	bf70 <gpio_request>
    bb30:	e5940000 	ldr	r0, [r4]
    bb34:	eb00016d 	bl	c0f0 <gpio_direction_output>
    bb38:	e5941000 	ldr	r1, [r4]
    bb3c:	e30f0c04 	movw	r0, #64516	@ 0xfc04
    bb40:	e3400000 	movt	r0, #0
    bb44:	eb000a4f 	bl	e488 <printk>
    bb48:	e3a00000 	mov	r0, #0
    bb4c:	e8bd8010 	pop	{r4, pc}
    bb50:	ebfff338 	bl	8838 <hardware_get_type>
    bb54:	e3500001 	cmp	r0, #1
    bb58:	0affffec 	beq	bb10 <led_init+0x20>
    bb5c:	ebfff335 	bl	8838 <hardware_get_type>
    bb60:	e3500004 	cmp	r0, #4
    bb64:	1a000002 	bne	bb74 <led_init+0x84>
    bb68:	e3a03000 	mov	r3, #0
    bb6c:	e3a0002f 	mov	r0, #47	@ 0x2f
    bb70:	eaffffe8 	b	bb18 <led_init+0x28>
    bb74:	ebfff32f 	bl	8838 <hardware_get_type>
    bb78:	e3500003 	cmp	r0, #3
    bb7c:	0afffff9 	beq	bb68 <led_init+0x78>
    bb80:	ebfff32c 	bl	8838 <hardware_get_type>
    bb84:	e3500007 	cmp	r0, #7
    bb88:	0afffff6 	beq	bb68 <led_init+0x78>
    bb8c:	ebfff329 	bl	8838 <hardware_get_type>
    bb90:	e3500009 	cmp	r0, #9
    bb94:	03a03000 	moveq	r3, #0
    bb98:	03a00012 	moveq	r0, #18
    bb9c:	0affffdd 	beq	bb18 <led_init+0x28>
    bba0:	e30f0bd0 	movw	r0, #64464	@ 0xfbd0
    bba4:	e3400000 	movt	r0, #0
    bba8:	eb000a36 	bl	e488 <printk>
    bbac:	e3a03000 	mov	r3, #0
    bbb0:	e3a00013 	mov	r0, #19
    bbb4:	e5843000 	str	r3, [r4]
    bbb8:	e8bd8010 	pop	{r4, pc}

0000bbbc <led_on>:
    bbbc:	e3053d74 	movw	r3, #23924	@ 0x5d74
    bbc0:	e34030c3 	movt	r3, #195	@ 0xc3
    bbc4:	e5933000 	ldr	r3, [r3]
    bbc8:	e3530000 	cmp	r3, #0
    bbcc:	0a000009 	beq	bbf8 <led_on+0x3c>
    bbd0:	e3023014 	movw	r3, #8212	@ 0x2014
    bbd4:	e3403003 	movt	r3, #3
    bbd8:	e92d4010 	push	{r4, lr}
    bbdc:	e8930005 	ldm	r3, {r0, r2}
    bbe0:	e3520000 	cmp	r2, #0
    bbe4:	13a01000 	movne	r1, #0
    bbe8:	03a01001 	moveq	r1, #1
    bbec:	eb000178 	bl	c1d4 <gpio_set_value>
    bbf0:	e3a00000 	mov	r0, #0
    bbf4:	e8bd8010 	pop	{r4, pc}
    bbf8:	e3a00000 	mov	r0, #0
    bbfc:	e12fff1e 	bx	lr

0000bc00 <led_off>:
    bc00:	e3053d74 	movw	r3, #23924	@ 0x5d74
    bc04:	e34030c3 	movt	r3, #195	@ 0xc3
    bc08:	e5933000 	ldr	r3, [r3]
    bc0c:	e3530000 	cmp	r3, #0
    bc10:	0a000008 	beq	bc38 <led_off+0x38>
    bc14:	e3023014 	movw	r3, #8212	@ 0x2014
    bc18:	e3403003 	movt	r3, #3
    bc1c:	e92d4010 	push	{r4, lr}
    bc20:	e1c300d0 	ldrd	r0, [r3]
    bc24:	e3510000 	cmp	r1, #0
    bc28:	13a01001 	movne	r1, #1
    bc2c:	eb000168 	bl	c1d4 <gpio_set_value>
    bc30:	e3a00000 	mov	r0, #0
    bc34:	e8bd8010 	pop	{r4, pc}
    bc38:	e3a00000 	mov	r0, #0
    bc3c:	e12fff1e 	bx	lr

0000bc40 <serial_init>:
    bc40:	e3500001 	cmp	r0, #1
    bc44:	e92d4010 	push	{r4, lr}
    bc48:	0a000007 	beq	bc6c <serial_init+0x2c>
    bc4c:	e3500002 	cmp	r0, #2
    bc50:	0a00000d 	beq	bc8c <serial_init+0x4c>
    bc54:	e3a02001 	mov	r2, #1
    bc58:	e3a00000 	mov	r0, #0
    bc5c:	e3053d78 	movw	r3, #23928	@ 0x5d78
    bc60:	e34030c3 	movt	r3, #195	@ 0xc3
    bc64:	e5832000 	str	r2, [r3]
    bc68:	e8bd8010 	pop	{r4, pc}
    bc6c:	e3050d78 	movw	r0, #23928	@ 0x5d78
    bc70:	e34000c3 	movt	r0, #195	@ 0xc3
    bc74:	eb00020a 	bl	c4a4 <pl011_uart_init>
    bc78:	e3500000 	cmp	r0, #0
    bc7c:	0afffff4 	beq	bc54 <serial_init+0x14>
    bc80:	e3a02000 	mov	r2, #0
    bc84:	e3e00012 	mvn	r0, #18
    bc88:	eafffff3 	b	bc5c <serial_init+0x1c>
    bc8c:	e3050d78 	movw	r0, #23928	@ 0x5d78
    bc90:	e34000c3 	movt	r0, #195	@ 0xc3
    bc94:	eb000312 	bl	c8e4 <mini_uart_init>
    bc98:	eafffff6 	b	bc78 <serial_init+0x38>

0000bc9c <serial_write>:
    bc9c:	e92d41f0 	push	{r4, r5, r6, r7, r8, lr}
    bca0:	e3055d78 	movw	r5, #23928	@ 0x5d78
    bca4:	e34050c3 	movt	r5, #195	@ 0xc3
    bca8:	e5953000 	ldr	r3, [r5]
    bcac:	e3530000 	cmp	r3, #0
    bcb0:	01a07003 	moveq	r7, r3
    bcb4:	0a000010 	beq	bcfc <serial_write+0x60>
    bcb8:	e3510000 	cmp	r1, #0
    bcbc:	e1a07001 	mov	r7, r1
    bcc0:	0a00000d 	beq	bcfc <serial_write+0x60>
    bcc4:	e0806001 	add	r6, r0, r1
    bcc8:	e2404001 	sub	r4, r0, #1
    bccc:	e2466001 	sub	r6, r6, #1
    bcd0:	e5f40001 	ldrb	r0, [r4, #1]!
    bcd4:	e350000a 	cmp	r0, #10
    bcd8:	1a000003 	bne	bcec <serial_write+0x50>
    bcdc:	e5953018 	ldr	r3, [r5, #24]
    bce0:	e3a0000d 	mov	r0, #13
    bce4:	e12fff33 	blx	r3
    bce8:	e5d40000 	ldrb	r0, [r4]
    bcec:	e5953018 	ldr	r3, [r5, #24]
    bcf0:	e12fff33 	blx	r3
    bcf4:	e1540006 	cmp	r4, r6
    bcf8:	1afffff4 	bne	bcd0 <serial_write+0x34>
    bcfc:	e1a00007 	mov	r0, r7
    bd00:	e8bd81f0 	pop	{r4, r5, r6, r7, r8, pc}

0000bd04 <serial_interrupt_handler>:
    bd04:	e3053d78 	movw	r3, #23928	@ 0x5d78
    bd08:	e34030c3 	movt	r3, #195	@ 0xc3
    bd0c:	e5933024 	ldr	r3, [r3, #36]	@ 0x24
    bd10:	e12fff13 	bx	r3

0000bd14 <serial_enable_interrupts>:
    bd14:	e3053d78 	movw	r3, #23928	@ 0x5d78
    bd18:	e34030c3 	movt	r3, #195	@ 0xc3
    bd1c:	e5933014 	ldr	r3, [r3, #20]
    bd20:	e12fff13 	bx	r3

0000bd24 <timer_init>:
    bd24:	e92d4010 	push	{r4, lr}
    bd28:	e30b0408 	movw	r0, #46088	@ 0xb408
    bd2c:	ebfffb29 	bl	a9d8 <bcm2835_read>
    bd30:	e3c010a0 	bic	r1, r0, #160	@ 0xa0
    bd34:	e30b0408 	movw	r0, #46088	@ 0xb408
    bd38:	ebfffb20 	bl	a9c0 <bcm2835_write>
    bd3c:	e3a010f9 	mov	r1, #249	@ 0xf9
    bd40:	e30b041c 	movw	r0, #46108	@ 0xb41c
    bd44:	ebfffb1d 	bl	a9c0 <bcm2835_write>
    bd48:	e3a0103d 	mov	r1, #61	@ 0x3d
    bd4c:	e3a00b2d 	mov	r0, #46080	@ 0xb400
    bd50:	ebfffb1a 	bl	a9c0 <bcm2835_write>
    bd54:	e3a010aa 	mov	r1, #170	@ 0xaa
    bd58:	e30b0408 	movw	r0, #46088	@ 0xb408
    bd5c:	ebfffb17 	bl	a9c0 <bcm2835_write>
    bd60:	e30b0218 	movw	r0, #45592	@ 0xb218
    bd64:	e3a01001 	mov	r1, #1
    bd68:	ebfffb14 	bl	a9c0 <bcm2835_write>
    bd6c:	e3a00000 	mov	r0, #0
    bd70:	e8bd8010 	pop	{r4, pc}

0000bd74 <timer_interrupt_handler>:
    bd74:	e92d4010 	push	{r4, lr}
    bd78:	e3054da0 	movw	r4, #23968	@ 0x5da0
    bd7c:	e34040c3 	movt	r4, #195	@ 0xc3
    bd80:	e3a01001 	mov	r1, #1
    bd84:	e30b040c 	movw	r0, #46092	@ 0xb40c
    bd88:	ebfffb0c 	bl	a9c0 <bcm2835_write>
    bd8c:	e5943000 	ldr	r3, [r4]
    bd90:	e5942004 	ldr	r2, [r4, #4]
    bd94:	e2833001 	add	r3, r3, #1
    bd98:	e5843000 	str	r3, [r4]
    bd9c:	e3520000 	cmp	r2, #0
    bda0:	11530002 	cmpne	r3, r2
    bda4:	8a000014 	bhi	bdfc <timer_interrupt_handler+0x88>
    bda8:	e302301c 	movw	r3, #8220	@ 0x201c
    bdac:	e3403003 	movt	r3, #3
    bdb0:	e5933000 	ldr	r3, [r3]
    bdb4:	e3530000 	cmp	r3, #0
    bdb8:	08bd8010 	popeq	{r4, pc}
    bdbc:	e594300c 	ldr	r3, [r4, #12]
    bdc0:	e2833001 	add	r3, r3, #1
    bdc4:	e584300c 	str	r3, [r4, #12]
    bdc8:	e3530020 	cmp	r3, #32
    bdcc:	0a000005 	beq	bde8 <timer_interrupt_handler+0x74>
    bdd0:	e3530040 	cmp	r3, #64	@ 0x40
    bdd4:	18bd8010 	popne	{r4, pc}
    bdd8:	ebffff77 	bl	bbbc <led_on>
    bddc:	e3a03000 	mov	r3, #0
    bde0:	e584300c 	str	r3, [r4, #12]
    bde4:	e8bd8010 	pop	{r4, pc}
    bde8:	ebffff84 	bl	bc00 <led_off>
    bdec:	e594300c 	ldr	r3, [r4, #12]
    bdf0:	e3530040 	cmp	r3, #64	@ 0x40
    bdf4:	18bd8010 	popne	{r4, pc}
    bdf8:	eafffff6 	b	bdd8 <timer_interrupt_handler+0x64>
    bdfc:	e3a03000 	mov	r3, #0
    be00:	e2840008 	add	r0, r4, #8
    be04:	e5843004 	str	r3, [r4, #4]
    be08:	eb000774 	bl	dbe0 <wait_queue_wake>
    be0c:	eaffffe5 	b	bda8 <timer_interrupt_handler+0x34>

0000be10 <timer_sleep_until>:
    be10:	e3053da0 	movw	r3, #23968	@ 0x5da0
    be14:	e34030c3 	movt	r3, #195	@ 0xc3
    be18:	e5932004 	ldr	r2, [r3, #4]
    be1c:	e3520000 	cmp	r2, #0
    be20:	0a000001 	beq	be2c <timer_sleep_until+0x1c>
    be24:	e1520000 	cmp	r2, r0
    be28:	9a000000 	bls	be30 <timer_sleep_until+0x20>
    be2c:	e5830004 	str	r0, [r3, #4]
    be30:	e59f000c 	ldr	r0, [pc, #12]	@ be44 <timer_sleep_until+0x34>
    be34:	e3043008 	movw	r3, #16392	@ 0x4008
    be38:	e34030c4 	movt	r3, #196	@ 0xc4
    be3c:	e5931000 	ldr	r1, [r3]
    be40:	ea000753 	b	db94 <wait_queue_add>
    be44:	00c35da8 	sbceq	r5, r3, r8, lsr #27

0000be48 <mailbox_write>:
    be48:	e92d4070 	push	{r4, r5, r6, lr}
    be4c:	e1a05000 	mov	r5, r0
    be50:	e30f0c28 	movw	r0, #64552	@ 0xfc28
    be54:	e1a02001 	mov	r2, r1
    be58:	e3400000 	movt	r0, #0
    be5c:	e1a06001 	mov	r6, r1
    be60:	e1a01005 	mov	r1, r5
    be64:	eb000987 	bl	e488 <printk>
    be68:	e315000f 	tst	r5, #15
    be6c:	1a000010 	bne	beb4 <mailbox_write+0x6c>
    be70:	e356000f 	cmp	r6, #15
    be74:	8a000014 	bhi	becc <mailbox_write+0x84>
    be78:	e30f4ca0 	movw	r4, #64672	@ 0xfca0
    be7c:	e3404000 	movt	r4, #0
    be80:	ea000000 	b	be88 <mailbox_write+0x40>
    be84:	eb00097f 	bl	e488 <printk>
    be88:	e30b08b8 	movw	r0, #47288	@ 0xb8b8
    be8c:	ebfffad1 	bl	a9d8 <bcm2835_read>
    be90:	e3500000 	cmp	r0, #0
    be94:	e1a00004 	mov	r0, r4
    be98:	bafffff9 	blt	be84 <mailbox_write+0x3c>
    be9c:	f57ff05a 	dmb	ishst
    bea0:	e1851006 	orr	r1, r5, r6
    bea4:	e30b08a0 	movw	r0, #47264	@ 0xb8a0
    bea8:	ebfffac4 	bl	a9c0 <bcm2835_write>
    beac:	e3a00000 	mov	r0, #0
    beb0:	e8bd8070 	pop	{r4, r5, r6, pc}
    beb4:	e30f0c54 	movw	r0, #64596	@ 0xfc54
    beb8:	e1a01005 	mov	r1, r5
    bebc:	e3400000 	movt	r0, #0
    bec0:	eb000970 	bl	e488 <printk>
    bec4:	e3e00000 	mvn	r0, #0
    bec8:	e8bd8070 	pop	{r4, r5, r6, pc}
    becc:	e30f0c7c 	movw	r0, #64636	@ 0xfc7c
    bed0:	e1a01006 	mov	r1, r6
    bed4:	e3400000 	movt	r0, #0
    bed8:	eb00096a 	bl	e488 <printk>
    bedc:	eafffff8 	b	bec4 <mailbox_write+0x7c>

0000bee0 <mailbox_read>:
    bee0:	e92d4070 	push	{r4, r5, r6, lr}
    bee4:	e1a05000 	mov	r5, r0
    bee8:	e30f0cb8 	movw	r0, #64696	@ 0xfcb8
    beec:	e1a01005 	mov	r1, r5
    bef0:	e3400000 	movt	r0, #0
    bef4:	eb000963 	bl	e488 <printk>
    bef8:	e355000f 	cmp	r5, #15
    befc:	8a000016 	bhi	bf5c <mailbox_read+0x7c>
    bf00:	e30f4cfc 	movw	r4, #64764	@ 0xfcfc
    bf04:	e3404000 	movt	r4, #0
    bf08:	ea000000 	b	bf10 <mailbox_read+0x30>
    bf0c:	eb00095d 	bl	e488 <printk>
    bf10:	e30b0898 	movw	r0, #47256	@ 0xb898
    bf14:	ebfffaaf 	bl	a9d8 <bcm2835_read>
    bf18:	e3100101 	tst	r0, #1073741824	@ 0x40000000
    bf1c:	e1a00004 	mov	r0, r4
    bf20:	1afffff9 	bne	bf0c <mailbox_read+0x2c>
    bf24:	f57ff05a 	dmb	ishst
    bf28:	e30b0880 	movw	r0, #47232	@ 0xb880
    bf2c:	ebfffaa9 	bl	a9d8 <bcm2835_read>
    bf30:	e200100f 	and	r1, r0, #15
    bf34:	e1510005 	cmp	r1, r5
    bf38:	1a000001 	bne	bf44 <mailbox_read+0x64>
    bf3c:	e3c0000f 	bic	r0, r0, #15
    bf40:	e8bd8070 	pop	{r4, r5, r6, pc}
    bf44:	e30f0d18 	movw	r0, #64792	@ 0xfd18
    bf48:	e1a02005 	mov	r2, r5
    bf4c:	e3400000 	movt	r0, #0
    bf50:	eb00094c 	bl	e488 <printk>
    bf54:	e3e00000 	mvn	r0, #0
    bf58:	e8bd8070 	pop	{r4, r5, r6, pc}
    bf5c:	e30f0cdc 	movw	r0, #64732	@ 0xfcdc
    bf60:	e1a01005 	mov	r1, r5
    bf64:	e3400000 	movt	r0, #0
    bf68:	eb000946 	bl	e488 <printk>
    bf6c:	eafffff8 	b	bf54 <mailbox_read+0x74>

0000bf70 <gpio_request>:
    bf70:	e3500036 	cmp	r0, #54	@ 0x36
    bf74:	e1a03000 	mov	r3, r0
    bf78:	e92d41f0 	push	{r4, r5, r6, r7, r8, lr}
    bf7c:	8a000017 	bhi	bfe0 <gpio_request+0x70>
    bf80:	e305edb0 	movw	lr, #23984	@ 0x5db0
    bf84:	e2607020 	rsb	r7, r0, #32
    bf88:	e340e0c3 	movt	lr, #195	@ 0xc3
    bf8c:	e240c020 	sub	ip, r0, #32
    bf90:	e89e0050 	ldm	lr, {r4, r6}
    bf94:	e1a00034 	lsr	r0, r4, r0
    bf98:	e1800716 	orr	r0, r0, r6, lsl r7
    bf9c:	e1800c36 	orr	r0, r0, r6, lsr ip
    bfa0:	e2105001 	ands	r5, r0, #1
    bfa4:	1a000013 	bne	bff8 <gpio_request+0x88>
    bfa8:	e3a00001 	mov	r0, #1
    bfac:	e1a02001 	mov	r2, r1
    bfb0:	e1a01c10 	lsl	r1, r0, ip
    bfb4:	e1811730 	orr	r1, r1, r0, lsr r7
    bfb8:	e1844310 	orr	r4, r4, r0, lsl r3
    bfbc:	e30f0d70 	movw	r0, #64880	@ 0xfd70
    bfc0:	e1811006 	orr	r1, r1, r6
    bfc4:	e58e1004 	str	r1, [lr, #4]
    bfc8:	e1a01003 	mov	r1, r3
    bfcc:	e3400000 	movt	r0, #0
    bfd0:	e58e4000 	str	r4, [lr]
    bfd4:	eb00092b 	bl	e488 <printk>
    bfd8:	e1a00005 	mov	r0, r5
    bfdc:	e8bd81f0 	pop	{r4, r5, r6, r7, r8, pc}
    bfe0:	e30f0d48 	movw	r0, #64840	@ 0xfd48
    bfe4:	e1a01003 	mov	r1, r3
    bfe8:	e3400000 	movt	r0, #0
    bfec:	eb000925 	bl	e488 <printk>
    bff0:	e3e00000 	mvn	r0, #0
    bff4:	e8bd81f0 	pop	{r4, r5, r6, r7, r8, pc}
    bff8:	e30f0d58 	movw	r0, #64856	@ 0xfd58
    bffc:	e1a01003 	mov	r1, r3
    c000:	e3400000 	movt	r0, #0
    c004:	eb00091f 	bl	e488 <printk>
    c008:	eafffff8 	b	bff0 <gpio_request+0x80>

0000c00c <gpio_free>:
    c00c:	e3500036 	cmp	r0, #54	@ 0x36
    c010:	e1a01000 	mov	r1, r0
    c014:	e92d4010 	push	{r4, lr}
    c018:	8a000011 	bhi	c064 <gpio_free+0x58>
    c01c:	e3053db0 	movw	r3, #23984	@ 0x5db0
    c020:	e3a0c001 	mov	ip, #1
    c024:	e34030c3 	movt	r3, #195	@ 0xc3
    c028:	e2402020 	sub	r2, r0, #32
    c02c:	e261e020 	rsb	lr, r1, #32
    c030:	e5930000 	ldr	r0, [r3]
    c034:	e1a0221c 	lsl	r2, ip, r2
    c038:	e1c0011c 	bic	r0, r0, ip, lsl r1
    c03c:	e1822e3c 	orr	r2, r2, ip, lsr lr
    c040:	e593c004 	ldr	ip, [r3, #4]
    c044:	e5830000 	str	r0, [r3]
    c048:	e30f0d8c 	movw	r0, #64908	@ 0xfd8c
    c04c:	e1cc2002 	bic	r2, ip, r2
    c050:	e3400000 	movt	r0, #0
    c054:	e5832004 	str	r2, [r3, #4]
    c058:	eb00090a 	bl	e488 <printk>
    c05c:	e3a00000 	mov	r0, #0
    c060:	e8bd8010 	pop	{r4, pc}
    c064:	e30f0d48 	movw	r0, #64840	@ 0xfd48
    c068:	e3400000 	movt	r0, #0
    c06c:	eb000905 	bl	e488 <printk>
    c070:	e3e00000 	mvn	r0, #0
    c074:	e8bd8010 	pop	{r4, pc}

0000c078 <gpio_direction_input>:
    c078:	e3500036 	cmp	r0, #54	@ 0x36
    c07c:	e92d4070 	push	{r4, r5, r6, lr}
    c080:	e1a04000 	mov	r4, r0
    c084:	ca000013 	bgt	c0d8 <gpio_direction_input+0x60>
    c088:	e1a05fc0 	asr	r5, r0, #31
    c08c:	e3063667 	movw	r3, #26215	@ 0x6667
    c090:	e3463666 	movt	r3, #26214	@ 0x6666
    c094:	e0c32093 	smull	r2, r3, r3, r0
    c098:	e0655143 	rsb	r5, r5, r3, asr #2
    c09c:	e1a06105 	lsl	r6, r5, #2
    c0a0:	e2866602 	add	r6, r6, #2097152	@ 0x200000
    c0a4:	e1a00006 	mov	r0, r6
    c0a8:	ebfffa4a 	bl	a9d8 <bcm2835_read>
    c0ac:	e3a0200a 	mov	r2, #10
    c0b0:	e3a01007 	mov	r1, #7
    c0b4:	e0644592 	mls	r4, r2, r5, r4
    c0b8:	e3a02003 	mov	r2, #3
    c0bc:	e1a03000 	mov	r3, r0
    c0c0:	e0040492 	mul	r4, r2, r4
    c0c4:	e1a00006 	mov	r0, r6
    c0c8:	e1c31411 	bic	r1, r3, r1, lsl r4
    c0cc:	ebfffa3b 	bl	a9c0 <bcm2835_write>
    c0d0:	e3a00000 	mov	r0, #0
    c0d4:	e8bd8070 	pop	{r4, r5, r6, pc}
    c0d8:	e30f0d48 	movw	r0, #64840	@ 0xfd48
    c0dc:	e1a01004 	mov	r1, r4
    c0e0:	e3400000 	movt	r0, #0
    c0e4:	eb0008e7 	bl	e488 <printk>
    c0e8:	e3e00000 	mvn	r0, #0
    c0ec:	e8bd8070 	pop	{r4, r5, r6, pc}

0000c0f0 <gpio_direction_output>:
    c0f0:	e3500036 	cmp	r0, #54	@ 0x36
    c0f4:	e1a01000 	mov	r1, r0
    c0f8:	e92d4070 	push	{r4, r5, r6, lr}
    c0fc:	ca000015 	bgt	c158 <gpio_direction_output+0x68>
    c100:	e1a05fc0 	asr	r5, r0, #31
    c104:	e3063667 	movw	r3, #26215	@ 0x6667
    c108:	e3463666 	movt	r3, #26214	@ 0x6666
    c10c:	e3a0000a 	mov	r0, #10
    c110:	e0c32193 	smull	r2, r3, r3, r1
    c114:	e3a02003 	mov	r2, #3
    c118:	e0655143 	rsb	r5, r5, r3, asr #2
    c11c:	e0611590 	mls	r1, r0, r5, r1
    c120:	e1a05105 	lsl	r5, r5, #2
    c124:	e2855602 	add	r5, r5, #2097152	@ 0x200000
    c128:	e1a00005 	mov	r0, r5
    c12c:	e0040192 	mul	r4, r2, r1
    c130:	ebfffa28 	bl	a9d8 <bcm2835_read>
    c134:	e3a02007 	mov	r2, #7
    c138:	e1a03000 	mov	r3, r0
    c13c:	e3a01001 	mov	r1, #1
    c140:	e1a00005 	mov	r0, r5
    c144:	e1c33412 	bic	r3, r3, r2, lsl r4
    c148:	e1831411 	orr	r1, r3, r1, lsl r4
    c14c:	ebfffa1b 	bl	a9c0 <bcm2835_write>
    c150:	e3a00000 	mov	r0, #0
    c154:	e8bd8070 	pop	{r4, r5, r6, pc}
    c158:	e30f0d48 	movw	r0, #64840	@ 0xfd48
    c15c:	e3400000 	movt	r0, #0
    c160:	eb0008c8 	bl	e488 <printk>
    c164:	e3e00000 	mvn	r0, #0
    c168:	e8bd8070 	pop	{r4, r5, r6, pc}

0000c16c <gpio_to_irq>:
    c16c:	e3a00031 	mov	r0, #49	@ 0x31
    c170:	e12fff1e 	bx	lr

0000c174 <gpio_get_value>:
    c174:	e3500036 	cmp	r0, #54	@ 0x36
    c178:	e92d4010 	push	{r4, lr}
    c17c:	e1a04000 	mov	r4, r0
    c180:	ca00000d 	bgt	c1bc <gpio_get_value+0x48>
    c184:	e3540000 	cmp	r4, #0
    c188:	e280001f 	add	r0, r0, #31
    c18c:	a1a00004 	movge	r0, r4
    c190:	e204401f 	and	r4, r4, #31
    c194:	e1a002c0 	asr	r0, r0, #5
    c198:	e1a00100 	lsl	r0, r0, #2
    c19c:	e2800602 	add	r0, r0, #2097152	@ 0x200000
    c1a0:	e2800034 	add	r0, r0, #52	@ 0x34
    c1a4:	ebfffa0b 	bl	a9d8 <bcm2835_read>
    c1a8:	e3a03001 	mov	r3, #1
    c1ac:	e0100413 	ands	r0, r0, r3, lsl r4
    c1b0:	11a00003 	movne	r0, r3
    c1b4:	03a00000 	moveq	r0, #0
    c1b8:	e8bd8010 	pop	{r4, pc}
    c1bc:	e30f0d9c 	movw	r0, #64924	@ 0xfd9c
    c1c0:	e1a01004 	mov	r1, r4
    c1c4:	e3400000 	movt	r0, #0
    c1c8:	eb0008ae 	bl	e488 <printk>
    c1cc:	e3e00000 	mvn	r0, #0
    c1d0:	e8bd8010 	pop	{r4, pc}

0000c1d4 <gpio_set_value>:
    c1d4:	e3500036 	cmp	r0, #54	@ 0x36
    c1d8:	e1a03000 	mov	r3, r0
    c1dc:	e92d4010 	push	{r4, lr}
    c1e0:	ca00001c 	bgt	c258 <gpio_set_value+0x84>
    c1e4:	e200c01f 	and	ip, r0, #31
    c1e8:	e3a00001 	mov	r0, #1
    c1ec:	e3530000 	cmp	r3, #0
    c1f0:	e1a0cc10 	lsl	ip, r0, ip
    c1f4:	e283001f 	add	r0, r3, #31
    c1f8:	a1a00003 	movge	r0, r3
    c1fc:	e3510000 	cmp	r1, #0
    c200:	e1a002c0 	asr	r0, r0, #5
    c204:	e1a00100 	lsl	r0, r0, #2
    c208:	0a00000c 	beq	c240 <gpio_set_value+0x6c>
    c20c:	e3510001 	cmp	r1, #1
    c210:	0a000004 	beq	c228 <gpio_set_value+0x54>
    c214:	e30f0dac 	movw	r0, #64940	@ 0xfdac
    c218:	e3400000 	movt	r0, #0
    c21c:	eb000899 	bl	e488 <printk>
    c220:	e3a00000 	mov	r0, #0
    c224:	e8bd8010 	pop	{r4, pc}
    c228:	e2800602 	add	r0, r0, #2097152	@ 0x200000
    c22c:	e1a0100c 	mov	r1, ip
    c230:	e280001c 	add	r0, r0, #28
    c234:	ebfff9e1 	bl	a9c0 <bcm2835_write>
    c238:	e3a00000 	mov	r0, #0
    c23c:	e8bd8010 	pop	{r4, pc}
    c240:	e2800602 	add	r0, r0, #2097152	@ 0x200000
    c244:	e1a0100c 	mov	r1, ip
    c248:	e2800028 	add	r0, r0, #40	@ 0x28
    c24c:	ebfff9db 	bl	a9c0 <bcm2835_write>
    c250:	e3a00000 	mov	r0, #0
    c254:	e8bd8010 	pop	{r4, pc}
    c258:	e30f0d9c 	movw	r0, #64924	@ 0xfd9c
    c25c:	e1a01003 	mov	r1, r3
    c260:	e3400000 	movt	r0, #0
    c264:	eb000887 	bl	e488 <printk>
    c268:	e3e00000 	mvn	r0, #0
    c26c:	e8bd8010 	pop	{r4, pc}

0000c270 <gpio_set_falling>:
    c270:	e3500036 	cmp	r0, #54	@ 0x36
    c274:	e92d4070 	push	{r4, r5, r6, lr}
    c278:	e1a05000 	mov	r5, r0
    c27c:	ca000010 	bgt	c2c4 <gpio_set_falling+0x54>
    c280:	e3500000 	cmp	r0, #0
    c284:	e280401f 	add	r4, r0, #31
    c288:	a1a04000 	movge	r4, r0
    c28c:	e205501f 	and	r5, r5, #31
    c290:	e1a042c4 	asr	r4, r4, #5
    c294:	e1a04104 	lsl	r4, r4, #2
    c298:	e2844602 	add	r4, r4, #2097152	@ 0x200000
    c29c:	e2844058 	add	r4, r4, #88	@ 0x58
    c2a0:	e1a00004 	mov	r0, r4
    c2a4:	ebfff9cb 	bl	a9d8 <bcm2835_read>
    c2a8:	e3a01001 	mov	r1, #1
    c2ac:	e1a03000 	mov	r3, r0
    c2b0:	e1a00004 	mov	r0, r4
    c2b4:	e1831511 	orr	r1, r3, r1, lsl r5
    c2b8:	ebfff9c0 	bl	a9c0 <bcm2835_write>
    c2bc:	e3a00000 	mov	r0, #0
    c2c0:	e8bd8070 	pop	{r4, r5, r6, pc}
    c2c4:	e30f0d9c 	movw	r0, #64924	@ 0xfd9c
    c2c8:	e1a01005 	mov	r1, r5
    c2cc:	e3400000 	movt	r0, #0
    c2d0:	eb00086c 	bl	e488 <printk>
    c2d4:	e3e00000 	mvn	r0, #0
    c2d8:	e8bd8070 	pop	{r4, r5, r6, pc}

0000c2dc <gpio_clear_interrupt>:
    c2dc:	e3500036 	cmp	r0, #54	@ 0x36
    c2e0:	e1a03000 	mov	r3, r0
    c2e4:	e92d4010 	push	{r4, lr}
    c2e8:	ca00000c 	bgt	c320 <gpio_clear_interrupt+0x44>
    c2ec:	e3530000 	cmp	r3, #0
    c2f0:	e280001f 	add	r0, r0, #31
    c2f4:	a1a00003 	movge	r0, r3
    c2f8:	e203201f 	and	r2, r3, #31
    c2fc:	e3a01001 	mov	r1, #1
    c300:	e1a002c0 	asr	r0, r0, #5
    c304:	e1a01211 	lsl	r1, r1, r2
    c308:	e1a00100 	lsl	r0, r0, #2
    c30c:	e2800602 	add	r0, r0, #2097152	@ 0x200000
    c310:	e2800040 	add	r0, r0, #64	@ 0x40
    c314:	ebfff9a9 	bl	a9c0 <bcm2835_write>
    c318:	e3a00000 	mov	r0, #0
    c31c:	e8bd8010 	pop	{r4, pc}
    c320:	e30f0d9c 	movw	r0, #64924	@ 0xfd9c
    c324:	e1a01003 	mov	r1, r3
    c328:	e3400000 	movt	r0, #0
    c32c:	eb000855 	bl	e488 <printk>
    c330:	e3e00000 	mvn	r0, #0
    c334:	e8bd8010 	pop	{r4, pc}

0000c338 <pl011_uart_putc>:
    c338:	e92d4070 	push	{r4, r5, r6, lr}
    c33c:	e3014018 	movw	r4, #4120	@ 0x1018
    c340:	e3404020 	movt	r4, #32
    c344:	e1a05000 	mov	r5, r0
    c348:	e1a00004 	mov	r0, r4
    c34c:	ebfff9a1 	bl	a9d8 <bcm2835_read>
    c350:	e3100020 	tst	r0, #32
    c354:	1afffffb 	bne	c348 <pl011_uart_putc+0x10>
    c358:	e3a00a01 	mov	r0, #4096	@ 0x1000
    c35c:	e1a01005 	mov	r1, r5
    c360:	e3400020 	movt	r0, #32
    c364:	e8bd4070 	pop	{r4, r5, r6, lr}
    c368:	eafff994 	b	a9c0 <bcm2835_write>

0000c36c <pl011_uart_getc>:
    c36c:	e92d4010 	push	{r4, lr}
    c370:	e3014018 	movw	r4, #4120	@ 0x1018
    c374:	e3404020 	movt	r4, #32
    c378:	e1a00004 	mov	r0, r4
    c37c:	ebfff995 	bl	a9d8 <bcm2835_read>
    c380:	e3100010 	tst	r0, #16
    c384:	1afffffb 	bne	c378 <pl011_uart_getc+0xc>
    c388:	e3a00a01 	mov	r0, #4096	@ 0x1000
    c38c:	e8bd4010 	pop	{r4, lr}
    c390:	e3400020 	movt	r0, #32
    c394:	eafff98f 	b	a9d8 <bcm2835_read>

0000c398 <pl011_uart_getc_noblock>:
    c398:	e3010018 	movw	r0, #4120	@ 0x1018
    c39c:	e3400020 	movt	r0, #32
    c3a0:	e92d4010 	push	{r4, lr}
    c3a4:	ebfff98b 	bl	a9d8 <bcm2835_read>
    c3a8:	e3100010 	tst	r0, #16
    c3ac:	1a000004 	bne	c3c4 <pl011_uart_getc_noblock+0x2c>
    c3b0:	e3a00a01 	mov	r0, #4096	@ 0x1000
    c3b4:	e3400020 	movt	r0, #32
    c3b8:	ebfff986 	bl	a9d8 <bcm2835_read>
    c3bc:	e6ef0070 	uxtb	r0, r0
    c3c0:	e8bd8010 	pop	{r4, pc}
    c3c4:	e3e00000 	mvn	r0, #0
    c3c8:	e8bd8010 	pop	{r4, pc}

0000c3cc <pl011_uart_enable_interrupts>:
    c3cc:	e92d4070 	push	{r4, r5, r6, lr}
    c3d0:	e3010044 	movw	r0, #4164	@ 0x1044
    c3d4:	e3400020 	movt	r0, #32
    c3d8:	e3014034 	movw	r4, #4148	@ 0x1034
    c3dc:	e3404020 	movt	r4, #32
    c3e0:	e30017ff 	movw	r1, #2047	@ 0x7ff
    c3e4:	e3015038 	movw	r5, #4152	@ 0x1038
    c3e8:	ebfff974 	bl	a9c0 <bcm2835_write>
    c3ec:	e3405020 	movt	r5, #32
    c3f0:	e1a00004 	mov	r0, r4
    c3f4:	ebfff977 	bl	a9d8 <bcm2835_read>
    c3f8:	e1a01000 	mov	r1, r0
    c3fc:	e1a00004 	mov	r0, r4
    c400:	e3c11038 	bic	r1, r1, #56	@ 0x38
    c404:	ebfff96d 	bl	a9c0 <bcm2835_write>
    c408:	e1a00005 	mov	r0, r5
    c40c:	ebfff971 	bl	a9d8 <bcm2835_read>
    c410:	e1a04000 	mov	r4, r0
    c414:	e30f0dc4 	movw	r0, #64964	@ 0xfdc4
    c418:	e3400000 	movt	r0, #0
    c41c:	e1a01004 	mov	r1, r4
    c420:	e3844040 	orr	r4, r4, #64	@ 0x40
    c424:	eb000817 	bl	e488 <printk>
    c428:	e30f0de0 	movw	r0, #64992	@ 0xfde0
    c42c:	e1a01004 	mov	r1, r4
    c430:	e3400000 	movt	r0, #0
    c434:	eb000813 	bl	e488 <printk>
    c438:	e1a00005 	mov	r0, r5
    c43c:	e1a01004 	mov	r1, r4
    c440:	ebfff95e 	bl	a9c0 <bcm2835_write>
    c444:	e8bd4070 	pop	{r4, r5, r6, lr}
    c448:	e3a00039 	mov	r0, #57	@ 0x39
    c44c:	eafff3d6 	b	93ac <irq_enable>

0000c450 <pl011_uart_interrupt_handler>:
    c450:	e92d4070 	push	{r4, r5, r6, lr}
    c454:	e3015018 	movw	r5, #4120	@ 0x1018
    c458:	e3405020 	movt	r5, #32
    c45c:	e3a04a01 	mov	r4, #4096	@ 0x1000
    c460:	e3404020 	movt	r4, #32
    c464:	ea000002 	b	c474 <pl011_uart_interrupt_handler+0x24>
    c468:	ebfff95a 	bl	a9d8 <bcm2835_read>
    c46c:	e6ef0070 	uxtb	r0, r0
    c470:	ebfff980 	bl	aa78 <console_insert_char>
    c474:	e1a00005 	mov	r0, r5
    c478:	ebfff956 	bl	a9d8 <bcm2835_read>
    c47c:	e1a03000 	mov	r3, r0
    c480:	e1a00004 	mov	r0, r4
    c484:	e3130010 	tst	r3, #16
    c488:	0afffff6 	beq	c468 <pl011_uart_interrupt_handler+0x18>
    c48c:	e3010044 	movw	r0, #4164	@ 0x1044
    c490:	e3a01040 	mov	r1, #64	@ 0x40
    c494:	e3400020 	movt	r0, #32
    c498:	ebfff948 	bl	a9c0 <bcm2835_write>
    c49c:	e3a00000 	mov	r0, #0
    c4a0:	e8bd8070 	pop	{r4, r5, r6, pc}

0000c4a4 <pl011_uart_init>:
    c4a4:	e3a03cc2 	mov	r3, #49664	@ 0xc200
    c4a8:	e30cc3cc 	movw	ip, #50124	@ 0xc3cc
    c4ac:	e3403001 	movt	r3, #1
    c4b0:	e30c136c 	movw	r1, #50028	@ 0xc36c
    c4b4:	e92d41f0 	push	{r4, r5, r6, r7, r8, lr}
    c4b8:	e30c2398 	movw	r2, #50072	@ 0xc398
    c4bc:	e5803004 	str	r3, [r0, #4]
    c4c0:	e30c3338 	movw	r3, #49976	@ 0xc338
    c4c4:	e3403000 	movt	r3, #0
    c4c8:	e3016030 	movw	r6, #4144	@ 0x1030
    c4cc:	e5803018 	str	r3, [r0, #24]
    c4d0:	e30c3450 	movw	r3, #50256	@ 0xc450
    c4d4:	e340c000 	movt	ip, #0
    c4d8:	e3a04000 	mov	r4, #0
    c4dc:	e3403000 	movt	r3, #0
    c4e0:	e3a05004 	mov	r5, #4
    c4e4:	e3402000 	movt	r2, #0
    c4e8:	e580c014 	str	ip, [r0, #20]
    c4ec:	e3a0c008 	mov	ip, #8
    c4f0:	e5803024 	str	r3, [r0, #36]	@ 0x24
    c4f4:	e3a03001 	mov	r3, #1
    c4f8:	e3401000 	movt	r1, #0
    c4fc:	e3406020 	movt	r6, #32
    c500:	e580c008 	str	ip, [r0, #8]
    c504:	e5802020 	str	r2, [r0, #32]
    c508:	e580300c 	str	r3, [r0, #12]
    c50c:	e5804010 	str	r4, [r0, #16]
    c510:	e580101c 	str	r1, [r0, #28]
    c514:	e1a01004 	mov	r1, r4
    c518:	e3405020 	movt	r5, #32
    c51c:	e1a00006 	mov	r0, r6
    c520:	ebfff926 	bl	a9c0 <bcm2835_write>
    c524:	e30f1df4 	movw	r1, #65012	@ 0xfdf4
    c528:	e3a0000e 	mov	r0, #14
    c52c:	e3401000 	movt	r1, #0
    c530:	ebfffe8e 	bl	bf70 <gpio_request>
    c534:	e30f1dfc 	movw	r1, #65020	@ 0xfdfc
    c538:	e3a0000f 	mov	r0, #15
    c53c:	e3401000 	movt	r1, #0
    c540:	ebfffe8a 	bl	bf70 <gpio_request>
    c544:	e1a00005 	mov	r0, r5
    c548:	ebfff922 	bl	a9d8 <bcm2835_read>
    c54c:	e3c01a3f 	bic	r1, r0, #258048	@ 0x3f000
    c550:	e1a00005 	mov	r0, r5
    c554:	e3811909 	orr	r1, r1, #147456	@ 0x24000
    c558:	e3a05096 	mov	r5, #150	@ 0x96
    c55c:	ebfff917 	bl	a9c0 <bcm2835_write>
    c560:	e3a00094 	mov	r0, #148	@ 0x94
    c564:	e1a01004 	mov	r1, r4
    c568:	e3400020 	movt	r0, #32
    c56c:	ebfff913 	bl	a9c0 <bcm2835_write>
    c570:	e1a03005 	mov	r3, r5

0000c574 <__delay_230>:
    c574:	e2533001 	subs	r3, r3, #1
    c578:	1afffffd 	bne	c574 <__delay_230>
    c57c:	e3a07098 	mov	r7, #152	@ 0x98
    c580:	e3a01903 	mov	r1, #49152	@ 0xc000
    c584:	e3407020 	movt	r7, #32
    c588:	e1a00007 	mov	r0, r7
    c58c:	ebfff90b 	bl	a9c0 <bcm2835_write>

0000c590 <__delay_236>:
    c590:	e2555001 	subs	r5, r5, #1
    c594:	1afffffd 	bne	c590 <__delay_236>
    c598:	e1a01004 	mov	r1, r4
    c59c:	e1a00007 	mov	r0, r7
    c5a0:	ebfff906 	bl	a9c0 <bcm2835_write>
    c5a4:	e3010044 	movw	r0, #4164	@ 0x1044
    c5a8:	e30017ff 	movw	r1, #2047	@ 0x7ff
    c5ac:	e3400020 	movt	r0, #32
    c5b0:	ebfff902 	bl	a9c0 <bcm2835_write>
    c5b4:	e3010024 	movw	r0, #4132	@ 0x1024
    c5b8:	e3a0101a 	mov	r1, #26
    c5bc:	e3400020 	movt	r0, #32
    c5c0:	ebfff8fe 	bl	a9c0 <bcm2835_write>
    c5c4:	e3010028 	movw	r0, #4136	@ 0x1028
    c5c8:	e3a01003 	mov	r1, #3
    c5cc:	e3400020 	movt	r0, #32
    c5d0:	ebfff8fa 	bl	a9c0 <bcm2835_write>
    c5d4:	e301002c 	movw	r0, #4140	@ 0x102c
    c5d8:	e3a01070 	mov	r1, #112	@ 0x70
    c5dc:	e3400020 	movt	r0, #32
    c5e0:	ebfff8f6 	bl	a9c0 <bcm2835_write>
    c5e4:	e3010038 	movw	r0, #4152	@ 0x1038
    c5e8:	e1a01004 	mov	r1, r4
    c5ec:	e3400020 	movt	r0, #32
    c5f0:	ebfff8f2 	bl	a9c0 <bcm2835_write>
    c5f4:	e1a00006 	mov	r0, r6
    c5f8:	e3001301 	movw	r1, #769	@ 0x301
    c5fc:	ebfff8ef 	bl	a9c0 <bcm2835_write>
    c600:	e1a00004 	mov	r0, r4
    c604:	e8bd81f0 	pop	{r4, r5, r6, r7, r8, pc}

0000c608 <pl011_uart_putc_extra>:
    c608:	e92d4070 	push	{r4, r5, r6, lr}
    c60c:	e3014018 	movw	r4, #4120	@ 0x1018
    c610:	e3404020 	movt	r4, #32
    c614:	e1a05000 	mov	r5, r0
    c618:	e1a00004 	mov	r0, r4
    c61c:	ebfff8ed 	bl	a9d8 <bcm2835_read>
    c620:	e3100020 	tst	r0, #32
    c624:	1afffffb 	bne	c618 <pl011_uart_putc_extra+0x10>
    c628:	e3a00a01 	mov	r0, #4096	@ 0x1000
    c62c:	e1a01005 	mov	r1, r5
    c630:	e3400020 	movt	r0, #32
    c634:	e8bd4070 	pop	{r4, r5, r6, lr}
    c638:	eafff8e0 	b	a9c0 <bcm2835_write>

0000c63c <pl011_write>:
    c63c:	e92d47f0 	push	{r4, r5, r6, r7, r8, r9, sl, lr}
    c640:	e2518000 	subs	r8, r1, #0
    c644:	0a000010 	beq	c68c <pl011_write+0x50>
    c648:	e0807008 	add	r7, r0, r8
    c64c:	e3014018 	movw	r4, #4120	@ 0x1018
    c650:	e3404020 	movt	r4, #32
    c654:	e3a09a01 	mov	r9, #4096	@ 0x1000
    c658:	e3409020 	movt	r9, #32
    c65c:	e2405001 	sub	r5, r0, #1
    c660:	e2477001 	sub	r7, r7, #1
    c664:	e5f56001 	ldrb	r6, [r5, #1]!
    c668:	e1a00004 	mov	r0, r4
    c66c:	ebfff8d9 	bl	a9d8 <bcm2835_read>
    c670:	e3100020 	tst	r0, #32
    c674:	1afffffb 	bne	c668 <pl011_write+0x2c>
    c678:	e1a01006 	mov	r1, r6
    c67c:	e1a00009 	mov	r0, r9
    c680:	ebfff8ce 	bl	a9c0 <bcm2835_write>
    c684:	e1550007 	cmp	r5, r7
    c688:	1afffff5 	bne	c664 <pl011_write+0x28>
    c68c:	e1a00008 	mov	r0, r8
    c690:	e8bd87f0 	pop	{r4, r5, r6, r7, r8, r9, sl, pc}

0000c694 <old_pl011_uart_init>:
    c694:	e92d4070 	push	{r4, r5, r6, lr}
    c698:	e3015030 	movw	r5, #4144	@ 0x1030
    c69c:	e3405020 	movt	r5, #32
    c6a0:	e3a01000 	mov	r1, #0
    c6a4:	e1a00005 	mov	r0, r5
    c6a8:	e3a04096 	mov	r4, #150	@ 0x96
    c6ac:	ebfff8c3 	bl	a9c0 <bcm2835_write>
    c6b0:	e30f1df4 	movw	r1, #65012	@ 0xfdf4
    c6b4:	e3a0000e 	mov	r0, #14
    c6b8:	e3401000 	movt	r1, #0
    c6bc:	ebfffe2b 	bl	bf70 <gpio_request>
    c6c0:	e30f1dfc 	movw	r1, #65020	@ 0xfdfc
    c6c4:	e3a0000f 	mov	r0, #15
    c6c8:	e3401000 	movt	r1, #0
    c6cc:	ebfffe27 	bl	bf70 <gpio_request>
    c6d0:	e3a00094 	mov	r0, #148	@ 0x94
    c6d4:	e3a01000 	mov	r1, #0
    c6d8:	e3400020 	movt	r0, #32
    c6dc:	ebfff8b7 	bl	a9c0 <bcm2835_write>
    c6e0:	e1a03004 	mov	r3, r4

0000c6e4 <__delay_370>:
    c6e4:	e2533001 	subs	r3, r3, #1
    c6e8:	1afffffd 	bne	c6e4 <__delay_370>
    c6ec:	e3a06098 	mov	r6, #152	@ 0x98
    c6f0:	e3a01903 	mov	r1, #49152	@ 0xc000
    c6f4:	e3406020 	movt	r6, #32
    c6f8:	e1a00006 	mov	r0, r6
    c6fc:	ebfff8af 	bl	a9c0 <bcm2835_write>

0000c700 <__delay_376>:
    c700:	e2544001 	subs	r4, r4, #1
    c704:	1afffffd 	bne	c700 <__delay_376>
    c708:	e3a01000 	mov	r1, #0
    c70c:	e1a00006 	mov	r0, r6
    c710:	ebfff8aa 	bl	a9c0 <bcm2835_write>
    c714:	e3010044 	movw	r0, #4164	@ 0x1044
    c718:	e30017ff 	movw	r1, #2047	@ 0x7ff
    c71c:	e3400020 	movt	r0, #32
    c720:	ebfff8a6 	bl	a9c0 <bcm2835_write>
    c724:	e3010024 	movw	r0, #4132	@ 0x1024
    c728:	e3a01001 	mov	r1, #1
    c72c:	e3400020 	movt	r0, #32
    c730:	ebfff8a2 	bl	a9c0 <bcm2835_write>
    c734:	e3010028 	movw	r0, #4136	@ 0x1028
    c738:	e3a01028 	mov	r1, #40	@ 0x28
    c73c:	e3400020 	movt	r0, #32
    c740:	ebfff89e 	bl	a9c0 <bcm2835_write>
    c744:	e301002c 	movw	r0, #4140	@ 0x102c
    c748:	e3a01070 	mov	r1, #112	@ 0x70
    c74c:	e3400020 	movt	r0, #32
    c750:	ebfff89a 	bl	a9c0 <bcm2835_write>
    c754:	e3010038 	movw	r0, #4152	@ 0x1038
    c758:	e3a01000 	mov	r1, #0
    c75c:	e3400020 	movt	r0, #32
    c760:	ebfff896 	bl	a9c0 <bcm2835_write>
    c764:	e1a00005 	mov	r0, r5
    c768:	e3001301 	movw	r1, #769	@ 0x301
    c76c:	ebfff893 	bl	a9c0 <bcm2835_write>
    c770:	e3a00000 	mov	r0, #0
    c774:	e8bd8070 	pop	{r4, r5, r6, pc}

0000c778 <mini_uart_putc>:
    c778:	e92d4070 	push	{r4, r5, r6, lr}
    c77c:	e3014018 	movw	r4, #4120	@ 0x1018
    c780:	e3404020 	movt	r4, #32
    c784:	e1a05000 	mov	r5, r0
    c788:	e1a00004 	mov	r0, r4
    c78c:	ebfff891 	bl	a9d8 <bcm2835_read>
    c790:	e3100020 	tst	r0, #32
    c794:	1afffffb 	bne	c788 <mini_uart_putc+0x10>
    c798:	e3a00a01 	mov	r0, #4096	@ 0x1000
    c79c:	e1a01005 	mov	r1, r5
    c7a0:	e3400020 	movt	r0, #32
    c7a4:	e8bd4070 	pop	{r4, r5, r6, lr}
    c7a8:	eafff884 	b	a9c0 <bcm2835_write>

0000c7ac <mini_uart_getc>:
    c7ac:	e92d4010 	push	{r4, lr}
    c7b0:	e3014018 	movw	r4, #4120	@ 0x1018
    c7b4:	e3404020 	movt	r4, #32
    c7b8:	e1a00004 	mov	r0, r4
    c7bc:	ebfff885 	bl	a9d8 <bcm2835_read>
    c7c0:	e3100010 	tst	r0, #16
    c7c4:	1afffffb 	bne	c7b8 <mini_uart_getc+0xc>
    c7c8:	e3a00a01 	mov	r0, #4096	@ 0x1000
    c7cc:	e8bd4010 	pop	{r4, lr}
    c7d0:	e3400020 	movt	r0, #32
    c7d4:	eafff87f 	b	a9d8 <bcm2835_read>

0000c7d8 <mini_uart_getc_noblock>:
    c7d8:	e3010018 	movw	r0, #4120	@ 0x1018
    c7dc:	e3400020 	movt	r0, #32
    c7e0:	e92d4010 	push	{r4, lr}
    c7e4:	ebfff87b 	bl	a9d8 <bcm2835_read>
    c7e8:	e3100010 	tst	r0, #16
    c7ec:	1a000004 	bne	c804 <mini_uart_getc_noblock+0x2c>
    c7f0:	e3a00a01 	mov	r0, #4096	@ 0x1000
    c7f4:	e3400020 	movt	r0, #32
    c7f8:	ebfff876 	bl	a9d8 <bcm2835_read>
    c7fc:	e6ef0070 	uxtb	r0, r0
    c800:	e8bd8010 	pop	{r4, pc}
    c804:	e3e00000 	mvn	r0, #0
    c808:	e8bd8010 	pop	{r4, pc}

0000c80c <mini_uart_enable_interrupts>:
    c80c:	e92d4070 	push	{r4, r5, r6, lr}
    c810:	e3010044 	movw	r0, #4164	@ 0x1044
    c814:	e3400020 	movt	r0, #32
    c818:	e3014034 	movw	r4, #4148	@ 0x1034
    c81c:	e3404020 	movt	r4, #32
    c820:	e30017ff 	movw	r1, #2047	@ 0x7ff
    c824:	e3015038 	movw	r5, #4152	@ 0x1038
    c828:	ebfff864 	bl	a9c0 <bcm2835_write>
    c82c:	e3405020 	movt	r5, #32
    c830:	e1a00004 	mov	r0, r4
    c834:	ebfff867 	bl	a9d8 <bcm2835_read>
    c838:	e1a01000 	mov	r1, r0
    c83c:	e1a00004 	mov	r0, r4
    c840:	e3c11038 	bic	r1, r1, #56	@ 0x38
    c844:	ebfff85d 	bl	a9c0 <bcm2835_write>
    c848:	e1a00005 	mov	r0, r5
    c84c:	ebfff861 	bl	a9d8 <bcm2835_read>
    c850:	e1a04000 	mov	r4, r0
    c854:	e30f0dc4 	movw	r0, #64964	@ 0xfdc4
    c858:	e3400000 	movt	r0, #0
    c85c:	e1a01004 	mov	r1, r4
    c860:	e3844040 	orr	r4, r4, #64	@ 0x40
    c864:	eb000707 	bl	e488 <printk>
    c868:	e30f0de0 	movw	r0, #64992	@ 0xfde0
    c86c:	e1a01004 	mov	r1, r4
    c870:	e3400000 	movt	r0, #0
    c874:	eb000703 	bl	e488 <printk>
    c878:	e1a00005 	mov	r0, r5
    c87c:	e1a01004 	mov	r1, r4
    c880:	ebfff84e 	bl	a9c0 <bcm2835_write>
    c884:	e8bd4070 	pop	{r4, r5, r6, lr}
    c888:	e3a00039 	mov	r0, #57	@ 0x39
    c88c:	eafff2c6 	b	93ac <irq_enable>

0000c890 <mini_uart_interrupt_handler>:
    c890:	e92d4070 	push	{r4, r5, r6, lr}
    c894:	e3015018 	movw	r5, #4120	@ 0x1018
    c898:	e3405020 	movt	r5, #32
    c89c:	e3a04a01 	mov	r4, #4096	@ 0x1000
    c8a0:	e3404020 	movt	r4, #32
    c8a4:	ea000002 	b	c8b4 <mini_uart_interrupt_handler+0x24>
    c8a8:	ebfff84a 	bl	a9d8 <bcm2835_read>
    c8ac:	e6ef0070 	uxtb	r0, r0
    c8b0:	ebfff870 	bl	aa78 <console_insert_char>
    c8b4:	e1a00005 	mov	r0, r5
    c8b8:	ebfff846 	bl	a9d8 <bcm2835_read>
    c8bc:	e1a03000 	mov	r3, r0
    c8c0:	e1a00004 	mov	r0, r4
    c8c4:	e3130010 	tst	r3, #16
    c8c8:	0afffff6 	beq	c8a8 <mini_uart_interrupt_handler+0x18>
    c8cc:	e3010044 	movw	r0, #4164	@ 0x1044
    c8d0:	e3a01040 	mov	r1, #64	@ 0x40
    c8d4:	e3400020 	movt	r0, #32
    c8d8:	ebfff838 	bl	a9c0 <bcm2835_write>
    c8dc:	e3a00000 	mov	r0, #0
    c8e0:	e8bd8070 	pop	{r4, r5, r6, pc}

0000c8e4 <mini_uart_init>:
    c8e4:	e3a03cc2 	mov	r3, #49664	@ 0xc200
    c8e8:	e30cc80c 	movw	ip, #51212	@ 0xc80c
    c8ec:	e3403001 	movt	r3, #1
    c8f0:	e30c17ac 	movw	r1, #51116	@ 0xc7ac
    c8f4:	e92d41f0 	push	{r4, r5, r6, r7, r8, lr}
    c8f8:	e30c27d8 	movw	r2, #51160	@ 0xc7d8
    c8fc:	e5803004 	str	r3, [r0, #4]
    c900:	e30c3778 	movw	r3, #51064	@ 0xc778
    c904:	e3403000 	movt	r3, #0
    c908:	e3016030 	movw	r6, #4144	@ 0x1030
    c90c:	e5803018 	str	r3, [r0, #24]
    c910:	e30c3890 	movw	r3, #51344	@ 0xc890
    c914:	e340c000 	movt	ip, #0
    c918:	e3a04000 	mov	r4, #0
    c91c:	e3402000 	movt	r2, #0
    c920:	e3a08001 	mov	r8, #1
    c924:	e3403000 	movt	r3, #0
    c928:	e3a05096 	mov	r5, #150	@ 0x96
    c92c:	e580c014 	str	ip, [r0, #20]
    c930:	e3a0c008 	mov	ip, #8
    c934:	e3401000 	movt	r1, #0
    c938:	e3406020 	movt	r6, #32
    c93c:	e580c008 	str	ip, [r0, #8]
    c940:	e5802020 	str	r2, [r0, #32]
    c944:	e5803024 	str	r3, [r0, #36]	@ 0x24
    c948:	e5804010 	str	r4, [r0, #16]
    c94c:	e580101c 	str	r1, [r0, #28]
    c950:	e1a01004 	mov	r1, r4
    c954:	e580800c 	str	r8, [r0, #12]
    c958:	e1a00006 	mov	r0, r6
    c95c:	ebfff817 	bl	a9c0 <bcm2835_write>
    c960:	e30f1df4 	movw	r1, #65012	@ 0xfdf4
    c964:	e3a0000e 	mov	r0, #14
    c968:	e3401000 	movt	r1, #0
    c96c:	ebfffd7f 	bl	bf70 <gpio_request>
    c970:	e30f1dfc 	movw	r1, #65020	@ 0xfdfc
    c974:	e3a0000f 	mov	r0, #15
    c978:	e3401000 	movt	r1, #0
    c97c:	ebfffd7b 	bl	bf70 <gpio_request>
    c980:	e3a00094 	mov	r0, #148	@ 0x94
    c984:	e1a01004 	mov	r1, r4
    c988:	e3400020 	movt	r0, #32
    c98c:	ebfff80b 	bl	a9c0 <bcm2835_write>
    c990:	e1a03005 	mov	r3, r5

0000c994 <__delay_220>:
    c994:	e2533001 	subs	r3, r3, #1
    c998:	1afffffd 	bne	c994 <__delay_220>
    c99c:	e3a07098 	mov	r7, #152	@ 0x98
    c9a0:	e3a01903 	mov	r1, #49152	@ 0xc000
    c9a4:	e3407020 	movt	r7, #32
    c9a8:	e1a00007 	mov	r0, r7
    c9ac:	ebfff803 	bl	a9c0 <bcm2835_write>

0000c9b0 <__delay_226>:
    c9b0:	e2555001 	subs	r5, r5, #1
    c9b4:	1afffffd 	bne	c9b0 <__delay_226>
    c9b8:	e1a01004 	mov	r1, r4
    c9bc:	e1a00007 	mov	r0, r7
    c9c0:	ebfff7fe 	bl	a9c0 <bcm2835_write>
    c9c4:	e3010044 	movw	r0, #4164	@ 0x1044
    c9c8:	e30017ff 	movw	r1, #2047	@ 0x7ff
    c9cc:	e3400020 	movt	r0, #32
    c9d0:	ebfff7fa 	bl	a9c0 <bcm2835_write>
    c9d4:	e3010024 	movw	r0, #4132	@ 0x1024
    c9d8:	e1a01008 	mov	r1, r8
    c9dc:	e3400020 	movt	r0, #32
    c9e0:	ebfff7f6 	bl	a9c0 <bcm2835_write>
    c9e4:	e3010028 	movw	r0, #4136	@ 0x1028
    c9e8:	e3a01028 	mov	r1, #40	@ 0x28
    c9ec:	e3400020 	movt	r0, #32
    c9f0:	ebfff7f2 	bl	a9c0 <bcm2835_write>
    c9f4:	e301002c 	movw	r0, #4140	@ 0x102c
    c9f8:	e3a01070 	mov	r1, #112	@ 0x70
    c9fc:	e3400020 	movt	r0, #32
    ca00:	ebfff7ee 	bl	a9c0 <bcm2835_write>
    ca04:	e3010038 	movw	r0, #4152	@ 0x1038
    ca08:	e1a01004 	mov	r1, r4
    ca0c:	e3400020 	movt	r0, #32
    ca10:	ebfff7ea 	bl	a9c0 <bcm2835_write>
    ca14:	e1a00006 	mov	r0, r6
    ca18:	e3001301 	movw	r1, #769	@ 0x301
    ca1c:	ebfff7e7 	bl	a9c0 <bcm2835_write>
    ca20:	e1a00004 	mov	r0, r4
    ca24:	e8bd81f0 	pop	{r4, r5, r6, r7, r8, pc}

0000ca28 <memory_total_free>:
    ca28:	e3053db8 	movw	r3, #23992	@ 0x5db8
    ca2c:	e34030c3 	movt	r3, #195	@ 0xc3
    ca30:	e5930000 	ldr	r0, [r3]
    ca34:	e3500000 	cmp	r0, #0
    ca38:	012fff1e 	bxeq	lr
    ca3c:	e3a03000 	mov	r3, #0
    ca40:	e305cdc0 	movw	ip, #24000	@ 0x5dc0
    ca44:	e92d4010 	push	{r4, lr}
    ca48:	e1a0e003 	mov	lr, r3
    ca4c:	e340c0c3 	movt	ip, #195	@ 0xc3
    ca50:	e3a04001 	mov	r4, #1
    ca54:	e1a012c3 	asr	r1, r3, #5
    ca58:	e203201f 	and	r2, r3, #31
    ca5c:	e2833001 	add	r3, r3, #1
    ca60:	e79c1101 	ldr	r1, [ip, r1, lsl #2]
    ca64:	e0111214 	ands	r1, r1, r4, lsl r2
    ca68:	028ee001 	addeq	lr, lr, #1
    ca6c:	e1500003 	cmp	r0, r3
    ca70:	1afffff7 	bne	ca54 <memory_total_free+0x2c>
    ca74:	e1a0060e 	lsl	r0, lr, #12
    ca78:	e8bd8010 	pop	{r4, pc}

0000ca7c <memory_allocate>:
    ca7c:	e3053db8 	movw	r3, #23992	@ 0x5db8
    ca80:	e3500001 	cmp	r0, #1
    ca84:	e34030c3 	movt	r3, #195	@ 0xc3
    ca88:	e92d41f0 	push	{r4, r5, r6, r7, r8, lr}
    ca8c:	21a05000 	movcs	r5, r0
    ca90:	e5936000 	ldr	r6, [r3]
    ca94:	33a05001 	movcc	r5, #1
    ca98:	e3560000 	cmp	r6, #0
    ca9c:	0a00002c 	beq	cb54 <memory_allocate+0xd8>
    caa0:	e2452001 	sub	r2, r5, #1
    caa4:	e3054dc0 	movw	r4, #24000	@ 0x5dc0
    caa8:	e34040c3 	movt	r4, #195	@ 0xc3
    caac:	e3a00000 	mov	r0, #0
    cab0:	e1a02622 	lsr	r2, r2, #12
    cab4:	e3a01001 	mov	r1, #1
    cab8:	e2822001 	add	r2, r2, #1
    cabc:	ea000002 	b	cacc <memory_allocate+0x50>
    cac0:	e2800001 	add	r0, r0, #1
    cac4:	e1560000 	cmp	r6, r0
    cac8:	0a000021 	beq	cb54 <memory_allocate+0xd8>
    cacc:	e1a0c2c0 	asr	ip, r0, #5
    cad0:	e200301f 	and	r3, r0, #31
    cad4:	e794e10c 	ldr	lr, [r4, ip, lsl #2]
    cad8:	e01ee311 	ands	lr, lr, r1, lsl r3
    cadc:	1afffff7 	bne	cac0 <memory_allocate+0x44>
    cae0:	e1a0c00e 	mov	ip, lr
    cae4:	ea000002 	b	caf4 <memory_allocate+0x78>
    cae8:	e7943103 	ldr	r3, [r4, r3, lsl #2]
    caec:	e0133711 	ands	r3, r3, r1, lsl r7
    caf0:	1afffff2 	bne	cac0 <memory_allocate+0x44>
    caf4:	e28cc001 	add	ip, ip, #1
    caf8:	e080300c 	add	r3, r0, ip
    cafc:	e152000c 	cmp	r2, ip
    cb00:	e203701f 	and	r7, r3, #31
    cb04:	e1a032c3 	asr	r3, r3, #5
    cb08:	cafffff6 	bgt	cae8 <memory_allocate+0x6c>
    cb0c:	1affffeb 	bne	cac0 <memory_allocate+0x44>
    cb10:	e3a05001 	mov	r5, #1
    cb14:	e080300e 	add	r3, r0, lr
    cb18:	e28ee001 	add	lr, lr, #1
    cb1c:	e152000e 	cmp	r2, lr
    cb20:	e203c01f 	and	ip, r3, #31
    cb24:	e1a032c3 	asr	r3, r3, #5
    cb28:	e7941103 	ldr	r1, [r4, r3, lsl #2]
    cb2c:	e1811c15 	orr	r1, r1, r5, lsl ip
    cb30:	e7841103 	str	r1, [r4, r3, lsl #2]
    cb34:	cafffff6 	bgt	cb14 <memory_allocate+0x98>
    cb38:	e1a04600 	lsl	r4, r0, #12
    cb3c:	e3a01000 	mov	r1, #0
    cb40:	e1a02602 	lsl	r2, r2, #12
    cb44:	e1a00004 	mov	r0, r4
    cb48:	eb000519 	bl	dfb4 <memset>
    cb4c:	e1a00004 	mov	r0, r4
    cb50:	e8bd81f0 	pop	{r4, r5, r6, r7, r8, pc}
    cb54:	e30f0e04 	movw	r0, #65028	@ 0xfe04
    cb58:	e1a01005 	mov	r1, r5
    cb5c:	e3400000 	movt	r0, #0
    cb60:	e3a04000 	mov	r4, #0
    cb64:	eb000647 	bl	e488 <printk>
    cb68:	eafffff7 	b	cb4c <memory_allocate+0xd0>

0000cb6c <memory_free>:
    cb6c:	e92d4070 	push	{r4, r5, r6, lr}
    cb70:	e3500000 	cmp	r0, #0
    cb74:	e2804eff 	add	r4, r0, #4080	@ 0xff0
    cb78:	e2415001 	sub	r5, r1, #1
    cb7c:	e1a02001 	mov	r2, r1
    cb80:	e284400f 	add	r4, r4, #15
    cb84:	e3a01056 	mov	r1, #86	@ 0x56
    cb88:	a1a04000 	movge	r4, r0
    cb8c:	e1a05625 	lsr	r5, r5, #12
    cb90:	eb000507 	bl	dfb4 <memset>
    cb94:	e3050dc0 	movw	r0, #24000	@ 0x5dc0
    cb98:	e2855001 	add	r5, r5, #1
    cb9c:	e1a04644 	asr	r4, r4, #12
    cba0:	e3a01000 	mov	r1, #0
    cba4:	e34000c3 	movt	r0, #195	@ 0xc3
    cba8:	e3a0e001 	mov	lr, #1
    cbac:	e0812004 	add	r2, r1, r4
    cbb0:	e2811001 	add	r1, r1, #1
    cbb4:	e3520000 	cmp	r2, #0
    cbb8:	e282301f 	add	r3, r2, #31
    cbbc:	a1a03002 	movge	r3, r2
    cbc0:	e202c01f 	and	ip, r2, #31
    cbc4:	e1550001 	cmp	r5, r1
    cbc8:	e1a032c3 	asr	r3, r3, #5
    cbcc:	e7902103 	ldr	r2, [r0, r3, lsl #2]
    cbd0:	e1c22c1e 	bic	r2, r2, lr, lsl ip
    cbd4:	e7802103 	str	r2, [r0, r3, lsl #2]
    cbd8:	cafffff3 	bgt	cbac <memory_free+0x40>
    cbdc:	e3a00000 	mov	r0, #0
    cbe0:	e8bd8070 	pop	{r4, r5, r6, pc}

0000cbe4 <memory_get_total>:
    cbe4:	e3053db8 	movw	r3, #23992	@ 0x5db8
    cbe8:	e34030c3 	movt	r3, #195	@ 0xc3
    cbec:	e5930004 	ldr	r0, [r3, #4]
    cbf0:	e12fff1e 	bx	lr

0000cbf4 <memory_hierarchy_init>:
    cbf4:	e92d4070 	push	{r4, r5, r6, lr}
    cbf8:	e24dd008 	sub	sp, sp, #8
    cbfc:	e1a04000 	mov	r4, r0
    cc00:	e28d1004 	add	r1, sp, #4
    cc04:	e1a0000d 	mov	r0, sp
    cc08:	e3055db8 	movw	r5, #23992	@ 0x5db8
    cc0c:	e34050c3 	movt	r5, #195	@ 0xc3
    cc10:	ebffef0c 	bl	8848 <hardware_get_memory>
    cc14:	e59d6004 	ldr	r6, [sp, #4]
    cc18:	e5856004 	str	r6, [r5, #4]
    cc1c:	e3560101 	cmp	r6, #1073741824	@ 0x40000000
    cc20:	8a000048 	bhi	cd48 <memory_hierarchy_init+0x154>
    cc24:	e30f0e4c 	movw	r0, #65100	@ 0xfe4c
    cc28:	e3a03008 	mov	r3, #8
    cc2c:	e1a02524 	lsr	r2, r4, #10
    cc30:	e1a01a26 	lsr	r1, r6, #20
    cc34:	e3400000 	movt	r0, #0
    cc38:	eb000612 	bl	e488 <printk>
    cc3c:	e1b028a6 	lsrs	r2, r6, #17
    cc40:	e1a06626 	lsr	r6, r6, #12
    cc44:	e5856000 	str	r6, [r5]
    cc48:	0a000006 	beq	cc68 <memory_hierarchy_init+0x74>
    cc4c:	e3053dc0 	movw	r3, #24000	@ 0x5dc0
    cc50:	e3a01000 	mov	r1, #0
    cc54:	e34030c3 	movt	r3, #195	@ 0xc3
    cc58:	e0832102 	add	r2, r3, r2, lsl #2
    cc5c:	e4831004 	str	r1, [r3], #4
    cc60:	e1520003 	cmp	r2, r3
    cc64:	1afffffc 	bne	cc5c <memory_hierarchy_init+0x68>
    cc68:	e1b00624 	lsrs	r0, r4, #12
    cc6c:	0a00000b 	beq	cca0 <memory_hierarchy_init+0xac>
    cc70:	e305edc0 	movw	lr, #24000	@ 0x5dc0
    cc74:	e3a03000 	mov	r3, #0
    cc78:	e340e0c3 	movt	lr, #195	@ 0xc3
    cc7c:	e3a06001 	mov	r6, #1
    cc80:	e1a0c2c3 	asr	ip, r3, #5
    cc84:	e203201f 	and	r2, r3, #31
    cc88:	e2833001 	add	r3, r3, #1
    cc8c:	e79e110c 	ldr	r1, [lr, ip, lsl #2]
    cc90:	e1530000 	cmp	r3, r0
    cc94:	e1811216 	orr	r1, r1, r6, lsl r2
    cc98:	e78e110c 	str	r1, [lr, ip, lsl #2]
    cc9c:	1afffff7 	bne	cc80 <memory_hierarchy_init+0x8c>
    cca0:	ebffeee4 	bl	8838 <hardware_get_type>
    cca4:	e3500007 	cmp	r0, #7
    cca8:	0a000002 	beq	ccb8 <memory_hierarchy_init+0xc4>
    ccac:	ebffeee1 	bl	8838 <hardware_get_type>
    ccb0:	e3500009 	cmp	r0, #9
    ccb4:	1a00000b 	bne	cce8 <memory_hierarchy_init+0xf4>
    ccb8:	e30f0e9c 	movw	r0, #65180	@ 0xfe9c
    ccbc:	e3400000 	movt	r0, #0
    ccc0:	eb0005f0 	bl	e488 <printk>
    ccc4:	e30f0ecc 	movw	r0, #65228	@ 0xfecc
    ccc8:	e3400000 	movt	r0, #0
    cccc:	eb0005ed 	bl	e488 <printk>
    ccd0:	e5951004 	ldr	r1, [r5, #4]
    ccd4:	e1a02004 	mov	r2, r4
    ccd8:	e3a00000 	mov	r0, #0
    ccdc:	eb000047 	bl	ce00 <enable_mmu>
    cce0:	e28dd008 	add	sp, sp, #8
    cce4:	e8bd8070 	pop	{r4, r5, r6, pc}
    cce8:	ebffeed2 	bl	8838 <hardware_get_type>
    ccec:	e350000a 	cmp	r0, #10
    ccf0:	0afffff0 	beq	ccb8 <memory_hierarchy_init+0xc4>
    ccf4:	e30f0ee4 	movw	r0, #65252	@ 0xfee4
    ccf8:	e3400000 	movt	r0, #0
    ccfc:	eb0005e1 	bl	e488 <printk>
    cd00:	eb0000da 	bl	d070 <enable_l1_icache>
    cd04:	e30f0ef8 	movw	r0, #65272	@ 0xfef8
    cd08:	e3400000 	movt	r0, #0
    cd0c:	eb0005dd 	bl	e488 <printk>
    cd10:	eb0000d8 	bl	d078 <enable_branch_predictor>
    cd14:	e30f0e9c 	movw	r0, #65180	@ 0xfe9c
    cd18:	e3400000 	movt	r0, #0
    cd1c:	eb0005d9 	bl	e488 <printk>
    cd20:	e5951004 	ldr	r1, [r5, #4]
    cd24:	e1a02004 	mov	r2, r4
    cd28:	e3a00000 	mov	r0, #0
    cd2c:	eb000033 	bl	ce00 <enable_mmu>
    cd30:	e30f0f14 	movw	r0, #65300	@ 0xff14
    cd34:	e3400000 	movt	r0, #0
    cd38:	eb0005d2 	bl	e488 <printk>
    cd3c:	eb0000c7 	bl	d060 <enable_l1_dcache>
    cd40:	e28dd008 	add	sp, sp, #8
    cd44:	e8bd8070 	pop	{r4, r5, r6, pc}
    cd48:	e30f0e30 	movw	r0, #65072	@ 0xfe30
    cd4c:	e3400000 	movt	r0, #0
    cd50:	eb0005cc 	bl	e488 <printk>
    cd54:	eaffffd1 	b	cca0 <memory_hierarchy_init+0xac>

0000cd58 <disable_l1_dcache>:
    cd58:	ee111f10 	mrc	15, 0, r1, cr1, cr0, {0}
    cd5c:	e3c11004 	bic	r1, r1, #4
    cd60:	ee011f10 	mcr	15, 0, r1, cr1, cr0, {0}
    cd64:	e12fff1e 	bx	lr

0000cd68 <invalidate_l1_dcache>:
    cd68:	e92d1fff 	push	{r0, r1, r2, r3, r4, r5, r6, r7, r8, r9, sl, fp, ip}
    cd6c:	ee300f30 	mrc	15, 1, r0, cr0, cr0, {1}
    cd70:	e2103407 	ands	r3, r0, #117440512	@ 0x7000000
    cd74:	e1a03ba3 	lsr	r3, r3, #23
    cd78:	0a00001a 	beq	cde8 <finished>
    cd7c:	e3a0a000 	mov	sl, #0

0000cd80 <loop1>:
    cd80:	e08a20aa 	add	r2, sl, sl, lsr #1
    cd84:	e1a01230 	lsr	r1, r0, r2
    cd88:	e2011007 	and	r1, r1, #7
    cd8c:	e3510002 	cmp	r1, #2
    cd90:	ba000011 	blt	cddc <skip>
    cd94:	ee40af10 	mcr	15, 2, sl, cr0, cr0, {0}
    cd98:	f57ff06f 	isb	sy
    cd9c:	ee301f10 	mrc	15, 1, r1, cr0, cr0, {0}
    cda0:	e2012007 	and	r2, r1, #7
    cda4:	e2822004 	add	r2, r2, #4
    cda8:	e59f4318 	ldr	r4, [pc, #792]	@ d0c8 <flush_dcache+0x2c>
    cdac:	e01441a1 	ands	r4, r4, r1, lsr #3
    cdb0:	e16f5f14 	clz	r5, r4
    cdb4:	e59f7310 	ldr	r7, [pc, #784]	@ d0cc <flush_dcache+0x30>
    cdb8:	e01776a1 	ands	r7, r7, r1, lsr #13

0000cdbc <loop2>:
    cdbc:	e1a09004 	mov	r9, r4

0000cdc0 <loop3>:
    cdc0:	e18ab519 	orr	fp, sl, r9, lsl r5
    cdc4:	e18bb217 	orr	fp, fp, r7, lsl r2
    cdc8:	ee07bf5e 	mcr	15, 0, fp, cr7, cr14, {2}
    cdcc:	e2599001 	subs	r9, r9, #1
    cdd0:	aafffffa 	bge	cdc0 <loop3>
    cdd4:	e2577001 	subs	r7, r7, #1
    cdd8:	aafffff7 	bge	cdbc <loop2>

0000cddc <skip>:
    cddc:	e28aa002 	add	sl, sl, #2
    cde0:	e153000a 	cmp	r3, sl
    cde4:	caffffe5 	bgt	cd80 <loop1>

0000cde8 <finished>:
    cde8:	e3a0a000 	mov	sl, #0
    cdec:	ee40af10 	mcr	15, 2, sl, cr0, cr0, {0}
    cdf0:	f57ff04f 	dsb	sy
    cdf4:	f57ff06f 	isb	sy
    cdf8:	e8bd1fff 	pop	{r0, r1, r2, r3, r4, r5, r6, r7, r8, r9, sl, fp, ip}
    cdfc:	e12fff1e 	bx	lr

0000ce00 <enable_mmu>:
    ce00:	e92d43f0 	push	{r4, r5, r6, r7, r8, r9, lr}
    ce04:	e1a07000 	mov	r7, r0
    ce08:	e30f0f28 	movw	r0, #65320	@ 0xff28
    ce0c:	e24dd00c 	sub	sp, sp, #12
    ce10:	e3400000 	movt	r0, #0
    ce14:	e1a06001 	mov	r6, r1
    ce18:	e1a05002 	mov	r5, r2
    ce1c:	e3a04000 	mov	r4, #0
    ce20:	eb000598 	bl	e488 <printk>
    ce24:	ee084f17 	mcr	15, 0, r4, cr8, cr7, {0}
    ce28:	e30f0f3c 	movw	r0, #65340	@ 0xff3c
    ce2c:	e3400000 	movt	r0, #0
    ce30:	eb000594 	bl	e488 <printk>
    ce34:	ee074f35 	mcr	15, 0, r4, cr7, cr5, {1}
    ce38:	e30f0f54 	movw	r0, #65364	@ 0xff54
    ce3c:	e3400000 	movt	r0, #0
    ce40:	eb000590 	bl	e488 <printk>
    ce44:	ee111f10 	mrc	15, 0, r1, cr1, cr0, {0}
    ce48:	e3c11004 	bic	r1, r1, #4
    ce4c:	ee011f10 	mcr	15, 0, r1, cr1, cr0, {0}
    ce50:	e30f0f6c 	movw	r0, #65388	@ 0xff6c
    ce54:	e3a01a01 	mov	r1, #4096	@ 0x1000
    ce58:	e3400000 	movt	r0, #0
    ce5c:	eb000589 	bl	e488 <printk>
    ce60:	e59fe1f0 	ldr	lr, [pc, #496]	@ d058 <enable_mmu+0x258>
    ce64:	e3002c16 	movw	r2, #3094	@ 0xc16
    ce68:	e3402009 	movt	r2, #9
    ce6c:	e1a0c004 	mov	ip, r4
    ce70:	e28e1901 	add	r1, lr, #16384	@ 0x4000
    ce74:	e28e4004 	add	r4, lr, #4
    ce78:	e18c3002 	orr	r3, ip, r2
    ce7c:	e28cc601 	add	ip, ip, #1048576	@ 0x100000
    ce80:	e5ae3004 	str	r3, [lr, #4]!
    ce84:	e15e0001 	cmp	lr, r1
    ce88:	1afffffa 	bne	ce78 <enable_mmu+0x78>
    ce8c:	e1a02a27 	lsr	r2, r7, #20
    ce90:	e1a08a25 	lsr	r8, r5, #20
    ce94:	e1520008 	cmp	r2, r8
    ce98:	2a000009 	bcs	cec4 <enable_mmu+0xc4>
    ce9c:	e1a03a02 	lsl	r3, r2, #20
    cea0:	e300040e 	movw	r0, #1038	@ 0x40e
    cea4:	e3400009 	movt	r0, #9
    cea8:	e0842102 	add	r2, r4, r2, lsl #2
    ceac:	e1a0ca08 	lsl	ip, r8, #20
    ceb0:	e1831000 	orr	r1, r3, r0
    ceb4:	e2833601 	add	r3, r3, #1048576	@ 0x100000
    ceb8:	e153000c 	cmp	r3, ip
    cebc:	e4821004 	str	r1, [r2], #4
    cec0:	1afffffa 	bne	ceb0 <enable_mmu+0xb0>
    cec4:	e3a03000 	mov	r3, #0
    cec8:	e30f0fa4 	movw	r0, #65444	@ 0xffa4
    cecc:	e34f3ff0 	movt	r3, #65520	@ 0xfff0
    ced0:	e1a01007 	mov	r1, r7
    ced4:	e0059003 	and	r9, r5, r3
    ced8:	e1a02005 	mov	r2, r5
    cedc:	e3400000 	movt	r0, #0
    cee0:	e0033007 	and	r3, r3, r7
    cee4:	e58d9000 	str	r9, [sp]
    cee8:	eb000566 	bl	e488 <printk>
    ceec:	e1a00a26 	lsr	r0, r6, #20
    cef0:	e1580000 	cmp	r8, r0
    cef4:	2a000009 	bcs	cf20 <enable_mmu+0x120>
    cef8:	e1a00a00 	lsl	r0, r0, #20
    cefc:	e300cc0e 	movw	ip, #3086	@ 0xc0e
    cf00:	e340c009 	movt	ip, #9
    cf04:	e1a03a08 	lsl	r3, r8, #20
    cf08:	e0842108 	add	r2, r4, r8, lsl #2
    cf0c:	e183100c 	orr	r1, r3, ip
    cf10:	e2833601 	add	r3, r3, #1048576	@ 0x100000
    cf14:	e1530000 	cmp	r3, r0
    cf18:	e4821004 	str	r1, [r2], #4
    cf1c:	1afffffa 	bne	cf0c <enable_mmu+0x10c>
    cf20:	e1a00a26 	lsr	r0, r6, #20
    cf24:	e1a02006 	mov	r2, r6
    cf28:	e1a01005 	mov	r1, r5
    cf2c:	e1a03009 	mov	r3, r9
    cf30:	e1a00a00 	lsl	r0, r0, #20
    cf34:	e58d0000 	str	r0, [sp]
    cf38:	e30f0fe4 	movw	r0, #65508	@ 0xffe4
    cf3c:	e3400000 	movt	r0, #0
    cf40:	eb000550 	bl	e488 <printk>
    cf44:	e59f2110 	ldr	r2, [pc, #272]	@ d05c <enable_mmu+0x25c>
    cf48:	e284cd7f 	add	ip, r4, #8128	@ 0x1fc0
    cf4c:	e300e416 	movw	lr, #1046	@ 0x416
    cf50:	e3a00101 	mov	r0, #1073741824	@ 0x40000000
    cf54:	e340e009 	movt	lr, #9
    cf58:	e28cc03c 	add	ip, ip, #60	@ 0x3c
    cf5c:	e1a01002 	mov	r1, r2
    cf60:	e180300e 	orr	r3, r0, lr
    cf64:	e2800601 	add	r0, r0, #1048576	@ 0x100000
    cf68:	e5a13004 	str	r3, [r1, #4]!
    cf6c:	e151000c 	cmp	r1, ip
    cf70:	1afffffa 	bne	cf60 <enable_mmu+0x160>
    cf74:	e3020c10 	movw	r0, #11280	@ 0x2c10
    cf78:	e3a01101 	mov	r1, #1073741824	@ 0x40000000
    cf7c:	e3400009 	movt	r0, #9
    cf80:	e1813000 	orr	r3, r1, r0
    cf84:	e2811601 	add	r1, r1, #1048576	@ 0x100000
    cf88:	e5a23004 	str	r3, [r2, #4]!
    cf8c:	e15c0002 	cmp	ip, r2
    cf90:	1afffffa 	bne	cf80 <enable_mmu+0x180>
    cf94:	ee121f50 	mrc	15, 0, r1, cr2, cr0, {2}
    cf98:	e300001c 	movw	r0, #28
    cf9c:	e3400001 	movt	r0, #1
    cfa0:	eb000538 	bl	e488 <printk>
    cfa4:	e3a03000 	mov	r3, #0
    cfa8:	ee023f50 	mcr	15, 0, r3, cr2, cr0, {2}
    cfac:	e3000030 	movw	r0, #48	@ 0x30
    cfb0:	e3400001 	movt	r0, #1
    cfb4:	eb000533 	bl	e488 <printk>
    cfb8:	e3053555 	movw	r3, #21845	@ 0x5555
    cfbc:	e3453555 	movt	r3, #21845	@ 0x5555
    cfc0:	ee033f10 	mcr	15, 0, r3, cr3, cr0, {0}
    cfc4:	e3000044 	movw	r0, #68	@ 0x44
    cfc8:	e3400001 	movt	r0, #1
    cfcc:	eb00052d 	bl	e488 <printk>
    cfd0:	ee115f10 	mrc	15, 0, r5, cr1, cr0, {0}
    cfd4:	e300005c 	movw	r0, #92	@ 0x5c
    cfd8:	e1a01005 	mov	r1, r5
    cfdc:	e3400001 	movt	r0, #1
    cfe0:	e3c55202 	bic	r5, r5, #536870912	@ 0x20000000
    cfe4:	eb000527 	bl	e488 <printk>
    cfe8:	ee015f10 	mcr	15, 0, r5, cr1, cr0, {0}
    cfec:	e3001000 	movw	r1, #0
    cff0:	e3000074 	movw	r0, #116	@ 0x74
    cff4:	e34010c4 	movt	r1, #196	@ 0xc4
    cff8:	e3400001 	movt	r0, #1
    cffc:	eb000521 	bl	e488 <printk>
    d000:	e5941000 	ldr	r1, [r4]
    d004:	e3000090 	movw	r0, #144	@ 0x90
    d008:	e3400001 	movt	r0, #1
    d00c:	e384406a 	orr	r4, r4, #106	@ 0x6a
    d010:	eb00051c 	bl	e488 <printk>
    d014:	ee024f10 	mcr	15, 0, r4, cr2, cr0, {0}
    d018:	ee114f10 	mrc	15, 0, r4, cr1, cr0, {0}
    d01c:	e30000a0 	movw	r0, #160	@ 0xa0
    d020:	e1a01004 	mov	r1, r4
    d024:	e3400001 	movt	r0, #1
    d028:	eb000516 	bl	e488 <printk>
    d02c:	e3843a01 	orr	r3, r4, #4096	@ 0x1000
    d030:	e3833005 	orr	r3, r3, #5
    d034:	ee013f10 	mcr	15, 0, r3, cr1, cr0, {0}
    d038:	f57ff04f 	dsb	sy
    d03c:	f57ff06f 	isb	sy
    d040:	ee111f10 	mrc	15, 0, r1, cr1, cr0, {0}
    d044:	e30000b4 	movw	r0, #180	@ 0xb4
    d048:	e3400001 	movt	r0, #1
    d04c:	e28dd00c 	add	sp, sp, #12
    d050:	e8bd43f0 	pop	{r4, r5, r6, r7, r8, r9, lr}
    d054:	ea00050b 	b	e488 <printk>
    d058:	00c3fffc 	strdeq	pc, [r3], #252	@ 0xfc
    d05c:	00c40ffc 	strdeq	r0, [r4], #252	@ 0xfc

0000d060 <enable_l1_dcache>:
    d060:	ee110f10 	mrc	15, 0, r0, cr1, cr0, {0}
    d064:	e3800004 	orr	r0, r0, #4
    d068:	ee010f10 	mcr	15, 0, r0, cr1, cr0, {0}
    d06c:	e12fff1e 	bx	lr

0000d070 <enable_l1_icache>:
    d070:	e12fff1e 	bx	lr

0000d074 <disable_l1_icache>:
    d074:	e12fff1e 	bx	lr

0000d078 <enable_branch_predictor>:
    d078:	e12fff1e 	bx	lr

0000d07c <disable_branch_predictor>:
    d07c:	e12fff1e 	bx	lr

0000d080 <l1_cache_detect>:
    d080:	e12fff1e 	bx	lr

0000d084 <flush_icache>:
    d084:	e3a03000 	mov	r3, #0
    d088:	ee073f15 	mcr	15, 0, r3, cr7, cr5, {0}
    d08c:	ee073fd5 	mcr	15, 0, r3, cr7, cr5, {6}
    d090:	f57ff04f 	dsb	sy
    d094:	f57ff06f 	isb	sy
    d098:	e12fff1e 	bx	lr

0000d09c <flush_dcache>:
    d09c:	e3c0000f 	bic	r0, r0, #15
    d0a0:	e3c1100f 	bic	r1, r1, #15
    d0a4:	e1500001 	cmp	r0, r1
    d0a8:	8a000003 	bhi	d0bc <flush_dcache+0x20>
    d0ac:	ee070f3e 	mcr	15, 0, r0, cr7, cr14, {1}
    d0b0:	e2800010 	add	r0, r0, #16
    d0b4:	e1500001 	cmp	r0, r1
    d0b8:	9afffffb 	bls	d0ac <flush_dcache+0x10>
    d0bc:	f57ff04f 	dsb	sy
    d0c0:	f57ff06f 	isb	sy
    d0c4:	e12fff1e 	bx	lr
    d0c8:	000003ff 	strdeq	r0, [r0], -pc	@ <UNPREDICTABLE>
    d0cc:	00007fff 	strdeq	r7, [r0], -pc	@ <UNPREDICTABLE>

0000d0d0 <process_get_totals>:
    d0d0:	e3a02000 	mov	r2, #0
    d0d4:	e3043000 	movw	r3, #16384	@ 0x4000
    d0d8:	e34030c4 	movt	r3, #196	@ 0xc4
    d0dc:	e1a00002 	mov	r0, r2
    d0e0:	e5933000 	ldr	r3, [r3]
    d0e4:	e5812000 	str	r2, [r1]
    d0e8:	e5932098 	ldr	r2, [r3, #152]	@ 0x98
    d0ec:	e2800001 	add	r0, r0, #1
    d0f0:	e5933084 	ldr	r3, [r3, #132]	@ 0x84
    d0f4:	e3520001 	cmp	r2, #1
    d0f8:	05912000 	ldreq	r2, [r1]
    d0fc:	02822001 	addeq	r2, r2, #1
    d100:	05812000 	streq	r2, [r1]
    d104:	e3530000 	cmp	r3, #0
    d108:	1afffff6 	bne	d0e8 <process_get_totals+0x18>
    d10c:	e12fff1e 	bx	lr

0000d110 <process_lookup>:
    d110:	e3043000 	movw	r3, #16384	@ 0x4000
    d114:	e1a02000 	mov	r2, r0
    d118:	e34030c4 	movt	r3, #196	@ 0xc4
    d11c:	e5930000 	ldr	r0, [r3]
    d120:	e3500000 	cmp	r0, #0
    d124:	012fff1e 	bxeq	lr
    d128:	e59030a8 	ldr	r3, [r0, #168]	@ 0xa8
    d12c:	e1530002 	cmp	r3, r2
    d130:	012fff1e 	bxeq	lr
    d134:	e5900084 	ldr	r0, [r0, #132]	@ 0x84
    d138:	e3500000 	cmp	r0, #0
    d13c:	1afffff9 	bne	d128 <process_lookup+0x18>
    d140:	e12fff1e 	bx	lr

0000d144 <process_lookup_child>:
    d144:	e3042000 	movw	r2, #16384	@ 0x4000
    d148:	e1a03000 	mov	r3, r0
    d14c:	e34020c4 	movt	r2, #196	@ 0xc4
    d150:	e5920000 	ldr	r0, [r2]
    d154:	e3500000 	cmp	r0, #0
    d158:	012fff1e 	bxeq	lr
    d15c:	e1530000 	cmp	r3, r0
    d160:	0a000002 	beq	d170 <process_lookup_child+0x2c>
    d164:	e59020b0 	ldr	r2, [r0, #176]	@ 0xb0
    d168:	e1520003 	cmp	r2, r3
    d16c:	012fff1e 	bxeq	lr
    d170:	e5900084 	ldr	r0, [r0, #132]	@ 0x84
    d174:	e3500000 	cmp	r0, #0
    d178:	1afffff7 	bne	d15c <process_lookup_child+0x18>
    d17c:	e12fff1e 	bx	lr

0000d180 <process_create>:
    d180:	e59f2124 	ldr	r2, [pc, #292]	@ d2ac <process_create+0x12c>
    d184:	e3a03000 	mov	r3, #0
    d188:	e92d41f0 	push	{r4, r5, r6, r7, r8, lr}
    d18c:	e7924683 	ldr	r4, [r2, r3, lsl #13]
    d190:	e1a05683 	lsl	r5, r3, #13
    d194:	e2833001 	add	r3, r3, #1
    d198:	e3540000 	cmp	r4, #0
    d19c:	0a000007 	beq	d1c0 <process_create+0x40>
    d1a0:	e3530010 	cmp	r3, #16
    d1a4:	1afffff8 	bne	d18c <process_create+0xc>
    d1a8:	e30000c8 	movw	r0, #200	@ 0xc8
    d1ac:	e3a06000 	mov	r6, #0
    d1b0:	e3400001 	movt	r0, #1
    d1b4:	eb0004b3 	bl	e488 <printk>
    d1b8:	e1a00006 	mov	r0, r6
    d1bc:	e8bd81f0 	pop	{r4, r5, r6, r7, r8, pc}
    d1c0:	e3057000 	movw	r7, #20480	@ 0x5000
    d1c4:	e3a02a02 	mov	r2, #8192	@ 0x2000
    d1c8:	e34070c4 	movt	r7, #196	@ 0xc4
    d1cc:	e1a01004 	mov	r1, r4
    d1d0:	e0876005 	add	r6, r7, r5
    d1d4:	e1a00006 	mov	r0, r6
    d1d8:	eb000375 	bl	dfb4 <memset>
    d1dc:	e2853090 	add	r3, r5, #144	@ 0x90
    d1e0:	e3a01000 	mov	r1, #0
    d1e4:	e3a00001 	mov	r0, #1
    d1e8:	e18700f3 	strd	r0, [r7, r3]
    d1ec:	e5864098 	str	r4, [r6, #152]	@ 0x98
    d1f0:	eb000311 	bl	de3c <ticks_since_boot>
    d1f4:	e3041000 	movw	r1, #16384	@ 0x4000
    d1f8:	e2853098 	add	r3, r5, #152	@ 0x98
    d1fc:	e34010c4 	movt	r1, #196	@ 0xc4
    d200:	e287c004 	add	ip, r7, #4
    d204:	e5912004 	ldr	r2, [r1, #4]
    d208:	e78c0003 	str	r0, [ip, r3]
    d20c:	e08c3003 	add	r3, ip, r3
    d210:	e5830004 	str	r0, [r3, #4]
    d214:	e2453004 	sub	r3, r5, #4
    d218:	e58620a8 	str	r2, [r6, #168]	@ 0xa8
    d21c:	e2822001 	add	r2, r2, #1
    d220:	e5812004 	str	r2, [r1, #4]
    d224:	e2872034 	add	r2, r7, #52	@ 0x34
    d228:	e0873003 	add	r3, r7, r3
    d22c:	e0822005 	add	r2, r2, r5
    d230:	e58640a4 	str	r4, [r6, #164]	@ 0xa4
    d234:	e58640b8 	str	r4, [r6, #184]	@ 0xb8
    d238:	e58640c0 	str	r4, [r6, #192]	@ 0xc0
    d23c:	e58640bc 	str	r4, [r6, #188]	@ 0xbc
    d240:	e58640c4 	str	r4, [r6, #196]	@ 0xc4
    d244:	e5a34004 	str	r4, [r3, #4]!
    d248:	e1530002 	cmp	r3, r2
    d24c:	1afffffc 	bne	d244 <process_create+0xc4>
    d250:	e5913000 	ldr	r3, [r1]
    d254:	e3a00010 	mov	r0, #16
    d258:	e0872005 	add	r2, r7, r5
    d25c:	e3530000 	cmp	r3, #0
    d260:	e5824038 	str	r4, [r2, #56]	@ 0x38
    d264:	e5820040 	str	r0, [r2, #64]	@ 0x40
    d268:	0a000009 	beq	d294 <process_create+0x114>
    d26c:	e1a02003 	mov	r2, r3
    d270:	e5933084 	ldr	r3, [r3, #132]	@ 0x84
    d274:	e3530000 	cmp	r3, #0
    d278:	1afffffb 	bne	d26c <process_create+0xec>
    d27c:	e0877005 	add	r7, r7, r5
    d280:	e1a00006 	mov	r0, r6
    d284:	e5826084 	str	r6, [r2, #132]	@ 0x84
    d288:	e5873084 	str	r3, [r7, #132]	@ 0x84
    d28c:	e5872088 	str	r2, [r7, #136]	@ 0x88
    d290:	e8bd81f0 	pop	{r4, r5, r6, r7, r8, pc}
    d294:	e5816000 	str	r6, [r1]
    d298:	e2855080 	add	r5, r5, #128	@ 0x80
    d29c:	e08c2005 	add	r2, ip, r5
    d2a0:	e78c3005 	str	r3, [ip, r5]
    d2a4:	e5823004 	str	r3, [r2, #4]
    d2a8:	eaffffc2 	b	d1b8 <process_create+0x38>
    d2ac:	00c45090 	smulleq	r5, r4, r0, r0

0000d2b0 <process_destroy>:
    d2b0:	e92d4070 	push	{r4, r5, r6, lr}
    d2b4:	e3045000 	movw	r5, #16384	@ 0x4000
    d2b8:	e34050c4 	movt	r5, #196	@ 0xc4
    d2bc:	e3a02000 	mov	r2, #0
    d2c0:	e5802090 	str	r2, [r0, #144]	@ 0x90
    d2c4:	e1a04000 	mov	r4, r0
    d2c8:	e5953000 	ldr	r3, [r5]
    d2cc:	e1530002 	cmp	r3, r2
    d2d0:	0a000022 	beq	d360 <process_destroy+0xb0>
    d2d4:	e1500003 	cmp	r0, r3
    d2d8:	1a000002 	bne	d2e8 <process_destroy+0x38>
    d2dc:	ea000019 	b	d348 <process_destroy+0x98>
    d2e0:	e1540003 	cmp	r4, r3
    d2e4:	0a000011 	beq	d330 <process_destroy+0x80>
    d2e8:	e5933084 	ldr	r3, [r3, #132]	@ 0x84
    d2ec:	e3530000 	cmp	r3, #0
    d2f0:	1afffffa 	bne	d2e0 <process_destroy+0x30>
    d2f4:	e300012c 	movw	r0, #300	@ 0x12c
    d2f8:	e3400001 	movt	r0, #1
    d2fc:	eb000461 	bl	e488 <printk>
    d300:	e59400b8 	ldr	r0, [r4, #184]	@ 0xb8
    d304:	e3500000 	cmp	r0, #0
    d308:	0a000001 	beq	d314 <process_destroy+0x64>
    d30c:	e59410bc 	ldr	r1, [r4, #188]	@ 0xbc
    d310:	ebfffe15 	bl	cb6c <memory_free>
    d314:	e59400c0 	ldr	r0, [r4, #192]	@ 0xc0
    d318:	e3500000 	cmp	r0, #0
    d31c:	0a000001 	beq	d328 <process_destroy+0x78>
    d320:	e59410c4 	ldr	r1, [r4, #196]	@ 0xc4
    d324:	ebfffe10 	bl	cb6c <memory_free>
    d328:	e3a00000 	mov	r0, #0
    d32c:	e8bd8070 	pop	{r4, r5, r6, pc}
    d330:	e5943084 	ldr	r3, [r4, #132]	@ 0x84
    d334:	e5942088 	ldr	r2, [r4, #136]	@ 0x88
    d338:	e3530000 	cmp	r3, #0
    d33c:	e5823084 	str	r3, [r2, #132]	@ 0x84
    d340:	15832088 	strne	r2, [r3, #136]	@ 0x88
    d344:	eaffffed 	b	d300 <process_destroy+0x50>
    d348:	e3000110 	movw	r0, #272	@ 0x110
    d34c:	e3400001 	movt	r0, #1
    d350:	eb00044c 	bl	e488 <printk>
    d354:	e5943084 	ldr	r3, [r4, #132]	@ 0x84
    d358:	e5853000 	str	r3, [r5]
    d35c:	eaffffe7 	b	d300 <process_destroy+0x50>
    d360:	e30000e8 	movw	r0, #232	@ 0xe8
    d364:	e3400001 	movt	r0, #1
    d368:	eb000446 	bl	e488 <printk>
    d36c:	eaffffe3 	b	d300 <process_destroy+0x50>

0000d370 <process_save>:
    d370:	e2800044 	add	r0, r0, #68	@ 0x44
    d374:	e1a02000 	mov	r2, r0
    d378:	e8827fff 	stm	r2, {r0, r1, r2, r3, r4, r5, r6, r7, r8, r9, sl, fp, ip, sp, lr}
    d37c:	e2822034 	add	r2, r2, #52	@ 0x34
    d380:	e5821000 	str	r1, [r2]
    d384:	e2822008 	add	r2, r2, #8
    d388:	e14f0000 	mrs	r0, SPSR
    d38c:	e8820001 	stm	r2, {r0}
    d390:	e12fff1e 	bx	lr

0000d394 <process_switch>:
    d394:	e2800044 	add	r0, r0, #68	@ 0x44
    d398:	e1a02000 	mov	r2, r0
    d39c:	e8827fff 	stm	r2, {r0, r1, r2, r3, r4, r5, r6, r7, r8, r9, sl, fp, ip, sp, lr}
    d3a0:	e282203c 	add	r2, r2, #60	@ 0x3c
    d3a4:	e14f0000 	mrs	r0, SPSR
    d3a8:	e8820001 	stm	r2, {r0}
    d3ac:	e3043000 	movw	r3, #16384	@ 0x4000
    d3b0:	e2812044 	add	r2, r1, #68	@ 0x44
    d3b4:	e34030c4 	movt	r3, #196	@ 0xc4
    d3b8:	e5831008 	str	r1, [r3, #8]
    d3bc:	e1a02002 	mov	r2, r2
    d3c0:	e592003c 	ldr	r0, [r2, #60]	@ 0x3c
    d3c4:	e169f000 	msr	SPSR_fc, r0
    d3c8:	e8927fff 	ldm	r2, {r0, r1, r2, r3, r4, r5, r6, r7, r8, r9, sl, fp, ip, sp, lr}
    d3cc:	e1a0f00e 	mov	pc, lr
    d3d0:	e3a00000 	mov	r0, #0
    d3d4:	e12fff1e 	bx	lr

0000d3d8 <execve>:
    d3d8:	e92d4ff0 	push	{r4, r5, r6, r7, r8, r9, sl, fp, lr}
    d3dc:	e24dd08c 	sub	sp, sp, #140	@ 0x8c
    d3e0:	e1a06001 	mov	r6, r1
    d3e4:	e58d0014 	str	r0, [sp, #20]
    d3e8:	ebfff301 	bl	9ff4 <get_inode>
    d3ec:	e2505000 	subs	r5, r0, #0
    d3f0:	ba000087 	blt	d614 <execve+0x23c>
    d3f4:	e3a03010 	mov	r3, #16
    d3f8:	e28d2038 	add	r2, sp, #56	@ 0x38
    d3fc:	e3a01000 	mov	r1, #0
    d400:	e1a04005 	mov	r4, r5
    d404:	ebfff4d3 	bl	a758 <romfs_read_file>
    d408:	e5dd3038 	ldrb	r3, [sp, #56]	@ 0x38
    d40c:	e3530062 	cmp	r3, #98	@ 0x62
    d410:	0a000082 	beq	d620 <execve+0x248>
    d414:	e1a00005 	mov	r0, r5
    d418:	e28d1048 	add	r1, sp, #72	@ 0x48
    d41c:	ebfff3cd 	bl	a358 <romfs_stat>
    d420:	e2505000 	subs	r5, r0, #0
    d424:	ba00007a 	blt	d614 <execve+0x23c>
    d428:	e59d9064 	ldr	r9, [sp, #100]	@ 0x64
    d42c:	e3a0a000 	mov	sl, #0
    d430:	e3a03a02 	mov	r3, #8192	@ 0x2000
    d434:	e58d3018 	str	r3, [sp, #24]
    d438:	e58d3020 	str	r3, [sp, #32]
    d43c:	e59d0018 	ldr	r0, [sp, #24]
    d440:	ebfffd8d 	bl	ca7c <memory_allocate>
    d444:	e58d001c 	str	r0, [sp, #28]
    d448:	e1a05000 	mov	r5, r0
    d44c:	e1a00009 	mov	r0, r9
    d450:	ebfffd89 	bl	ca7c <memory_allocate>
    d454:	e3550000 	cmp	r5, #0
    d458:	13500000 	cmpne	r0, #0
    d45c:	e1a07000 	mov	r7, r0
    d460:	03a05001 	moveq	r5, #1
    d464:	13a05000 	movne	r5, #0
    d468:	0a0000af 	beq	d72c <execve+0x354>
    d46c:	e304b008 	movw	fp, #16392	@ 0x4008
    d470:	e1a0100a 	mov	r1, sl
    d474:	e340b0c4 	movt	fp, #196	@ 0xc4
    d478:	e1a03009 	mov	r3, r9
    d47c:	e1a02007 	mov	r2, r7
    d480:	e1a00004 	mov	r0, r4
    d484:	ebfff4b3 	bl	a758 <romfs_read_file>
    d488:	e59b0000 	ldr	r0, [fp]
    d48c:	e3a02020 	mov	r2, #32
    d490:	e59d1014 	ldr	r1, [sp, #20]
    d494:	e28000d8 	add	r0, r0, #216	@ 0xd8
    d498:	eb000465 	bl	e634 <strlcpy>
    d49c:	e3560000 	cmp	r6, #0
    d4a0:	0a000096 	beq	d700 <execve+0x328>
    d4a4:	e5961000 	ldr	r1, [r6]
    d4a8:	e3510000 	cmp	r1, #0
    d4ac:	0a000098 	beq	d714 <execve+0x33c>
    d4b0:	e1a03006 	mov	r3, r6
    d4b4:	e5b32004 	ldr	r2, [r3, #4]!
    d4b8:	e3520000 	cmp	r2, #0
    d4bc:	e1a02005 	mov	r2, r5
    d4c0:	e2855001 	add	r5, r5, #1
    d4c4:	1afffffa 	bne	d4b4 <execve+0xdc>
    d4c8:	e58d5024 	str	r5, [sp, #36]	@ 0x24
    d4cc:	e2823002 	add	r3, r2, #2
    d4d0:	e1a08103 	lsl	r8, r3, #2
    d4d4:	e2482008 	sub	r2, r8, #8
    d4d8:	e2884004 	add	r4, r8, #4
    d4dc:	e796a002 	ldr	sl, [r6, r2]
    d4e0:	e3a00000 	mov	r0, #0
    d4e4:	e04aa001 	sub	sl, sl, r1
    d4e8:	eb000493 	bl	e73c <strlen>
    d4ec:	e59d2018 	ldr	r2, [sp, #24]
    d4f0:	e2883001 	add	r3, r8, #1
    d4f4:	e0830000 	add	r0, r3, r0
    d4f8:	e3a03000 	mov	r3, #0
    d4fc:	e080000a 	add	r0, r0, sl
    d500:	e1500003 	cmp	r0, r3
    d504:	e2801007 	add	r1, r0, #7
    d508:	a1a01000 	movge	r1, r0
    d50c:	e3c11007 	bic	r1, r1, #7
    d510:	e1550003 	cmp	r5, r3
    d514:	e2811008 	add	r1, r1, #8
    d518:	e0421001 	sub	r1, r2, r1
    d51c:	e59d201c 	ldr	r2, [sp, #28]
    d520:	e0821001 	add	r1, r2, r1
    d524:	e7c13004 	strb	r3, [r1, r4]
    d528:	e0814004 	add	r4, r1, r4
    d52c:	0a000017 	beq	d590 <execve+0x1b8>
    d530:	e081a105 	add	sl, r1, r5, lsl #2
    d534:	e2466004 	sub	r6, r6, #4
    d538:	e58d502c 	str	r5, [sp, #44]	@ 0x2c
    d53c:	e1a08001 	mov	r8, r1
    d540:	e58d7028 	str	r7, [sp, #40]	@ 0x28
    d544:	e1a05001 	mov	r5, r1
    d548:	e5b67004 	ldr	r7, [r6, #4]!
    d54c:	e4854004 	str	r4, [r5], #4
    d550:	e1a00007 	mov	r0, r7
    d554:	eb000478 	bl	e73c <strlen>
    d558:	e2802001 	add	r2, r0, #1
    d55c:	e1a01007 	mov	r1, r7
    d560:	e1a00004 	mov	r0, r4
    d564:	eb00041a 	bl	e5d4 <strncpy>
    d568:	e1a04000 	mov	r4, r0
    d56c:	e5960000 	ldr	r0, [r6]
    d570:	eb000471 	bl	e73c <strlen>
    d574:	e155000a 	cmp	r5, sl
    d578:	e2802001 	add	r2, r0, #1
    d57c:	e0844002 	add	r4, r4, r2
    d580:	1afffff0 	bne	d548 <execve+0x170>
    d584:	e59d7028 	ldr	r7, [sp, #40]	@ 0x28
    d588:	e1a01008 	mov	r1, r8
    d58c:	e59d502c 	ldr	r5, [sp, #44]	@ 0x2c
    d590:	e59b3000 	ldr	r3, [fp]
    d594:	e59d2018 	ldr	r2, [sp, #24]
    d598:	e59d401c 	ldr	r4, [sp, #28]
    d59c:	e58320bc 	str	r2, [r3, #188]	@ 0xbc
    d5a0:	e59d2024 	ldr	r2, [sp, #36]	@ 0x24
    d5a4:	e5831034 	str	r1, [r3, #52]	@ 0x34
    d5a8:	e5832000 	str	r2, [r3]
    d5ac:	e5831004 	str	r1, [r3, #4]
    d5b0:	e58340b8 	str	r4, [r3, #184]	@ 0xb8
    d5b4:	e583703c 	str	r7, [r3, #60]	@ 0x3c
    d5b8:	e58370c0 	str	r7, [r3, #192]	@ 0xc0
    d5bc:	e58390c4 	str	r9, [r3, #196]	@ 0xc4
    d5c0:	ebfffeaf 	bl	d084 <flush_icache>
    d5c4:	e59b2000 	ldr	r2, [fp]
    d5c8:	e300c3ff 	movw	ip, #1023	@ 0x3ff
    d5cc:	e59d1014 	ldr	r1, [sp, #20]
    d5d0:	e3000158 	movw	r0, #344	@ 0x158
    d5d4:	e59230a8 	ldr	r3, [r2, #168]	@ 0xa8
    d5d8:	e58d400c 	str	r4, [sp, #12]
    d5dc:	e59d4020 	ldr	r4, [sp, #32]
    d5e0:	e3400001 	movt	r0, #1
    d5e4:	e084e00c 	add	lr, r4, ip
    d5e8:	e3540000 	cmp	r4, #0
    d5ec:	e089c00c 	add	ip, r9, ip
    d5f0:	a1a0e004 	movge	lr, r4
    d5f4:	e58d7004 	str	r7, [sp, #4]
    d5f8:	e3590000 	cmp	r9, #0
    d5fc:	e1a0e54e 	asr	lr, lr, #10
    d600:	a1a0c009 	movge	ip, r9
    d604:	e58de008 	str	lr, [sp, #8]
    d608:	e1a0c54c 	asr	ip, ip, #10
    d60c:	e58dc000 	str	ip, [sp]
    d610:	eb00039c 	bl	e488 <printk>
    d614:	e1a00005 	mov	r0, r5
    d618:	e28dd08c 	add	sp, sp, #140	@ 0x8c
    d61c:	e8bd8ff0 	pop	{r4, r5, r6, r7, r8, r9, sl, fp, pc}
    d620:	e5dd3039 	ldrb	r3, [sp, #57]	@ 0x39
    d624:	e3530046 	cmp	r3, #70	@ 0x46
    d628:	1affff79 	bne	d414 <execve+0x3c>
    d62c:	e5dd303a 	ldrb	r3, [sp, #58]	@ 0x3a
    d630:	e353004c 	cmp	r3, #76	@ 0x4c
    d634:	1affff76 	bne	d414 <execve+0x3c>
    d638:	e5dd303b 	ldrb	r3, [sp, #59]	@ 0x3b
    d63c:	e3530054 	cmp	r3, #84	@ 0x54
    d640:	1affff73 	bne	d414 <execve+0x3c>
    d644:	e3a03040 	mov	r3, #64	@ 0x40
    d648:	e28d2048 	add	r2, sp, #72	@ 0x48
    d64c:	e3a01000 	mov	r1, #0
    d650:	e1a00005 	mov	r0, r5
    d654:	ebfff43f 	bl	a758 <romfs_read_file>
    d658:	e3a02004 	mov	r2, #4
    d65c:	e28d1060 	add	r1, sp, #96	@ 0x60
    d660:	e28d0034 	add	r0, sp, #52	@ 0x34
    d664:	eb000207 	bl	de88 <memcpy>
    d668:	e59d3034 	ldr	r3, [sp, #52]	@ 0x34
    d66c:	e3a02004 	mov	r2, #4
    d670:	e28d1050 	add	r1, sp, #80	@ 0x50
    d674:	e28d0034 	add	r0, sp, #52	@ 0x34
    d678:	e1a08003 	mov	r8, r3
    d67c:	e6bf8f38 	rev	r8, r8
    d680:	e58d8018 	str	r8, [sp, #24]
    d684:	eb0001ff 	bl	de88 <memcpy>
    d688:	e59da034 	ldr	sl, [sp, #52]	@ 0x34
    d68c:	e3a02004 	mov	r2, #4
    d690:	e28d1054 	add	r1, sp, #84	@ 0x54
    d694:	e28d0034 	add	r0, sp, #52	@ 0x34
    d698:	eb0001fa 	bl	de88 <memcpy>
    d69c:	e59d7034 	ldr	r7, [sp, #52]	@ 0x34
    d6a0:	e3a02004 	mov	r2, #4
    d6a4:	e28d1058 	add	r1, sp, #88	@ 0x58
    d6a8:	e28d0034 	add	r0, sp, #52	@ 0x34
    d6ac:	eb0001f5 	bl	de88 <memcpy>
    d6b0:	e59d5034 	ldr	r5, [sp, #52]	@ 0x34
    d6b4:	e28d0034 	add	r0, sp, #52	@ 0x34
    d6b8:	e3a02004 	mov	r2, #4
    d6bc:	e28d105c 	add	r1, sp, #92	@ 0x5c
    d6c0:	eb0001f0 	bl	de88 <memcpy>
    d6c4:	e59d9034 	ldr	r9, [sp, #52]	@ 0x34
    d6c8:	e3043008 	movw	r3, #16392	@ 0x4008
    d6cc:	e34030c4 	movt	r3, #196	@ 0xc4
    d6d0:	e6bf5f35 	rev	r5, r5
    d6d4:	e5933000 	ldr	r3, [r3]
    d6d8:	e6bf9f39 	rev	r9, r9
    d6dc:	e6bf7f37 	rev	r7, r7
    d6e0:	e0457007 	sub	r7, r5, r7
    d6e4:	e0495005 	sub	r5, r9, r5
    d6e8:	e6bfaf3a 	rev	sl, sl
    d6ec:	e58370cc 	str	r7, [r3, #204]	@ 0xcc
    d6f0:	e049900a 	sub	r9, r9, sl
    d6f4:	e58350d4 	str	r5, [r3, #212]	@ 0xd4
    d6f8:	e58d8020 	str	r8, [sp, #32]
    d6fc:	eaffff4e 	b	d43c <execve+0x64>
    d700:	e1cd21d8 	ldrd	r2, [sp, #24]
    d704:	e58d6024 	str	r6, [sp, #36]	@ 0x24
    d708:	e1a05006 	mov	r5, r6
    d70c:	e0831002 	add	r1, r3, r2
    d710:	eaffff9e 	b	d590 <execve+0x1b8>
    d714:	e58d1024 	str	r1, [sp, #36]	@ 0x24
    d718:	e3a04008 	mov	r4, #8
    d71c:	e3e02003 	mvn	r2, #3
    d720:	e3a08004 	mov	r8, #4
    d724:	e1a05001 	mov	r5, r1
    d728:	eaffff6b 	b	d4dc <execve+0x104>
    d72c:	e3500000 	cmp	r0, #0
    d730:	0a000001 	beq	d73c <execve+0x364>
    d734:	e1a01009 	mov	r1, r9
    d738:	ebfffd0b 	bl	cb6c <memory_free>
    d73c:	e59d301c 	ldr	r3, [sp, #28]
    d740:	e3530000 	cmp	r3, #0
    d744:	0a000002 	beq	d754 <execve+0x37c>
    d748:	e59d1018 	ldr	r1, [sp, #24]
    d74c:	e1a00003 	mov	r0, r3
    d750:	ebfffd05 	bl	cb6c <memory_free>
    d754:	e3e0500b 	mvn	r5, #11
    d758:	eaffffad 	b	d614 <execve+0x23c>

0000d75c <exit>:
    d75c:	e3043008 	movw	r3, #16392	@ 0x4008
    d760:	e3a02002 	mov	r2, #2
    d764:	e34030c4 	movt	r3, #196	@ 0xc4
    d768:	e92d4010 	push	{r4, lr}
    d76c:	e5933000 	ldr	r3, [r3]
    d770:	e5832098 	str	r2, [r3, #152]	@ 0x98
    d774:	e58300ac 	str	r0, [r3, #172]	@ 0xac
    d778:	eb0000c8 	bl	daa0 <waitpid_done>
    d77c:	e8bd4010 	pop	{r4, lr}
    d780:	ea000038 	b	d868 <schedule>

0000d784 <idle_task>:
    d784:	e320f003 	wfi
    d788:	eafffffd 	b	d784 <idle_task>

0000d78c <enter_kernelspace>:
    d78c:	e3043008 	movw	r3, #16392	@ 0x4008
    d790:	e34030c4 	movt	r3, #196	@ 0xc4
    d794:	e52de004 	push	{lr}		@ (str lr, [sp, #-4]!)
    d798:	e5933000 	ldr	r3, [r3]
    d79c:	e593303c 	ldr	r3, [r3, #60]	@ 0x3c
    d7a0:	e1a0e003 	mov	lr, r3
    d7a4:	e59fd0b8 	ldr	sp, [pc, #184]	@ d864 <create_idle_task+0xa8>
    d7a8:	e59dd000 	ldr	sp, [sp]
    d7ac:	e3a0001f 	mov	r0, #31
    d7b0:	e16ff000 	msr	SPSR_fsxc, r0
    d7b4:	e1b0f00e 	movs	pc, lr
    d7b8:	e49df004 	pop	{pc}		@ (ldr pc, [sp], #4)

0000d7bc <create_idle_task>:
    d7bc:	e92d4030 	push	{r4, r5, lr}
    d7c0:	e24dd00c 	sub	sp, sp, #12
    d7c4:	e3a05001 	mov	r5, #1
    d7c8:	ebfffe6c 	bl	d180 <process_create>
    d7cc:	e5805094 	str	r5, [r0, #148]	@ 0x94
    d7d0:	e30d3784 	movw	r3, #55172	@ 0xd784
    d7d4:	e3403000 	movt	r3, #0
    d7d8:	e3a02000 	mov	r2, #0
    d7dc:	e58020a4 	str	r2, [r0, #164]	@ 0xa4
    d7e0:	e1a04000 	mov	r4, r0
    d7e4:	e58030c0 	str	r3, [r0, #192]	@ 0xc0
    d7e8:	e580303c 	str	r3, [r0, #60]	@ 0x3c
    d7ec:	eb000192 	bl	de3c <ticks_since_boot>
    d7f0:	e1a03000 	mov	r3, r0
    d7f4:	e3a00a01 	mov	r0, #4096	@ 0x1000
    d7f8:	e584309c 	str	r3, [r4, #156]	@ 0x9c
    d7fc:	e58430a0 	str	r3, [r4, #160]	@ 0xa0
    d800:	ebfffc9d 	bl	ca7c <memory_allocate>
    d804:	e58400b8 	str	r0, [r4, #184]	@ 0xb8
    d808:	e3a0301f 	mov	r3, #31
    d80c:	e5843040 	str	r3, [r4, #64]	@ 0x40
    d810:	e2800a01 	add	r0, r0, #4096	@ 0x1000
    d814:	e5840034 	str	r0, [r4, #52]	@ 0x34
    d818:	e30011b0 	movw	r1, #432	@ 0x1b0
    d81c:	e3401001 	movt	r1, #1
    d820:	e3a02005 	mov	r2, #5
    d824:	e28400d8 	add	r0, r4, #216	@ 0xd8
    d828:	eb000369 	bl	e5d4 <strncpy>
    d82c:	e59400c0 	ldr	r0, [r4, #192]	@ 0xc0
    d830:	e30d178c 	movw	r1, #55180	@ 0xd78c
    d834:	e3401000 	movt	r1, #0
    d838:	e584107c 	str	r1, [r4, #124]	@ 0x7c
    d83c:	e1a01004 	mov	r1, r4
    d840:	e59430b8 	ldr	r3, [r4, #184]	@ 0xb8
    d844:	e59420a8 	ldr	r2, [r4, #168]	@ 0xa8
    d848:	e5845098 	str	r5, [r4, #152]	@ 0x98
    d84c:	e58d0000 	str	r0, [sp]
    d850:	e30001b8 	movw	r0, #440	@ 0x1b8
    d854:	e3400001 	movt	r0, #1
    d858:	eb00030a 	bl	e488 <printk>
    d85c:	e28dd00c 	add	sp, sp, #12
    d860:	e8bd8030 	pop	{r4, r5, pc}
    d864:	00c44008 	sbceq	r4, r4, r8

0000d868 <schedule>:
    d868:	e92d4070 	push	{r4, r5, r6, lr}
    d86c:	e3043000 	movw	r3, #16384	@ 0x4000
    d870:	e34030c4 	movt	r3, #196	@ 0xc4
    d874:	e3045008 	movw	r5, #16392	@ 0x4008
    d878:	e34050c4 	movt	r5, #196	@ 0xc4
    d87c:	e5934000 	ldr	r4, [r3]
    d880:	e5950000 	ldr	r0, [r5]
    d884:	e1540000 	cmp	r4, r0
    d888:	e5903084 	ldr	r3, [r0, #132]	@ 0x84
    d88c:	0a00001e 	beq	d90c <schedule+0xa4>
    d890:	e1a03000 	mov	r3, r0
    d894:	ea000004 	b	d8ac <schedule+0x44>
    d898:	e5932098 	ldr	r2, [r3, #152]	@ 0x98
    d89c:	e3520001 	cmp	r2, #1
    d8a0:	0a000017 	beq	d904 <schedule+0x9c>
    d8a4:	e1530000 	cmp	r3, r0
    d8a8:	0a000005 	beq	d8c4 <schedule+0x5c>
    d8ac:	e5933084 	ldr	r3, [r3, #132]	@ 0x84
    d8b0:	e3530000 	cmp	r3, #0
    d8b4:	1afffff7 	bne	d898 <schedule+0x30>
    d8b8:	e5943084 	ldr	r3, [r4, #132]	@ 0x84
    d8bc:	e3530000 	cmp	r3, #0
    d8c0:	1afffff4 	bne	d898 <schedule+0x30>
    d8c4:	eb00015c 	bl	de3c <ticks_since_boot>
    d8c8:	e5952000 	ldr	r2, [r5]
    d8cc:	e59230a4 	ldr	r3, [r2, #164]	@ 0xa4
    d8d0:	e59210a0 	ldr	r1, [r2, #160]	@ 0xa0
    d8d4:	e0433001 	sub	r3, r3, r1
    d8d8:	e0833000 	add	r3, r3, r0
    d8dc:	e58230a4 	str	r3, [r2, #164]	@ 0xa4
    d8e0:	eb000155 	bl	de3c <ticks_since_boot>
    d8e4:	e5953000 	ldr	r3, [r5]
    d8e8:	e58400a0 	str	r0, [r4, #160]	@ 0xa0
    d8ec:	e1530004 	cmp	r3, r4
    d8f0:	08bd8070 	popeq	{r4, r5, r6, pc}
    d8f4:	e1a01004 	mov	r1, r4
    d8f8:	e1a00003 	mov	r0, r3
    d8fc:	e8bd4070 	pop	{r4, r5, r6, lr}
    d900:	eafffea3 	b	d394 <process_switch>
    d904:	e1a04003 	mov	r4, r3
    d908:	eaffffed 	b	d8c4 <schedule+0x5c>
    d90c:	e3530000 	cmp	r3, #0
    d910:	08bd8070 	popeq	{r4, r5, r6, pc}
    d914:	e1a00003 	mov	r0, r3
    d918:	eaffffdc 	b	d890 <schedule+0x28>

0000d91c <sched_yield>:
    d91c:	e92d4010 	push	{r4, lr}
    d920:	ebffffd0 	bl	d868 <schedule>
    d924:	e3a00000 	mov	r0, #0
    d928:	e8bd8010 	pop	{r4, pc}

0000d92c <enter_userspace>:
    d92c:	e3043008 	movw	r3, #16392	@ 0x4008
    d930:	e34030c4 	movt	r3, #196	@ 0xc4
    d934:	e52de004 	push	{lr}		@ (str lr, [sp, #-4]!)
    d938:	e5933000 	ldr	r3, [r3]
    d93c:	e593303c 	ldr	r3, [r3, #60]	@ 0x3c
    d940:	e1a0e003 	mov	lr, r3
    d944:	e59fd0ac 	ldr	sp, [pc, #172]	@ d9f8 <start_userspace+0x9c>
    d948:	e59dd000 	ldr	sp, [sp]
    d94c:	e3a00010 	mov	r0, #16
    d950:	e16ff000 	msr	SPSR_fsxc, r0
    d954:	e1b0f00e 	movs	pc, lr
    d958:	e49df004 	pop	{pc}		@ (ldr pc, [sp], #4)

0000d95c <start_userspace>:
    d95c:	e92d48f0 	push	{r4, r5, r6, r7, fp, lr}
    d960:	e28db014 	add	fp, sp, #20
    d964:	e1a06000 	mov	r6, r0
    d968:	ebfffe04 	bl	d180 <process_create>
    d96c:	e1a04000 	mov	r4, r0
    d970:	e3045008 	movw	r5, #16392	@ 0x4008
    d974:	e34050c4 	movt	r5, #196	@ 0xc4
    d978:	e30f01e8 	movw	r0, #61928	@ 0xf1e8
    d97c:	e3400000 	movt	r0, #0
    d980:	e58440b0 	str	r4, [r4, #176]	@ 0xb0
    d984:	e5854000 	str	r4, [r5]
    d988:	ebfff199 	bl	9ff4 <get_inode>
    d98c:	e58400b4 	str	r0, [r4, #180]	@ 0xb4
    d990:	e3a02000 	mov	r2, #0
    d994:	e1a01002 	mov	r1, r2
    d998:	e1a00006 	mov	r0, r6
    d99c:	ebfffe8d 	bl	d3d8 <execve>
    d9a0:	e3500000 	cmp	r0, #0
    d9a4:	b8bd88f0 	poplt	{r4, r5, r6, r7, fp, pc}
    d9a8:	e59410a8 	ldr	r1, [r4, #168]	@ 0xa8
    d9ac:	e30001ec 	movw	r0, #492	@ 0x1ec
    d9b0:	e3400001 	movt	r0, #1
    d9b4:	e28420d8 	add	r2, r4, #216	@ 0xd8
    d9b8:	eb0002b2 	bl	e488 <printk>
    d9bc:	e3a03001 	mov	r3, #1
    d9c0:	e5843098 	str	r3, [r4, #152]	@ 0x98
    d9c4:	e5943034 	ldr	r3, [r4, #52]	@ 0x34
    d9c8:	e321f0df 	msr	CPSR_c, #223	@ 0xdf
    d9cc:	e1a0d003 	mov	sp, r3
    d9d0:	e321f0d3 	msr	CPSR_c, #211	@ 0xd3
    d9d4:	e5953000 	ldr	r3, [r5]
    d9d8:	e593303c 	ldr	r3, [r3, #60]	@ 0x3c
    d9dc:	e1a0e003 	mov	lr, r3
    d9e0:	e59fd010 	ldr	sp, [pc, #16]	@ d9f8 <start_userspace+0x9c>
    d9e4:	e59dd000 	ldr	sp, [sp]
    d9e8:	e3a00010 	mov	r0, #16
    d9ec:	e16ff000 	msr	SPSR_fsxc, r0
    d9f0:	e1b0f00e 	movs	pc, lr
    d9f4:	e8bd88f0 	pop	{r4, r5, r6, r7, fp, pc}
    d9f8:	00c44008 	sbceq	r4, r4, r8

0000d9fc <vfork>:
    d9fc:	e92d47f0 	push	{r4, r5, r6, r7, r8, r9, sl, lr}
    da00:	e59f8090 	ldr	r8, [pc, #144]	@ da98 <vfork+0x9c>
    da04:	e5985000 	ldr	r5, [r8]
    da08:	ebfffddc 	bl	d180 <process_create>
    da0c:	e2504000 	subs	r4, r0, #0
    da10:	0a00001c 	beq	da88 <vfork+0x8c>
    da14:	e3a02a02 	mov	r2, #8192	@ 0x2000
    da18:	e1a01005 	mov	r1, r5
    da1c:	e3a06000 	mov	r6, #0
    da20:	e59470a8 	ldr	r7, [r4, #168]	@ 0xa8
    da24:	e594a084 	ldr	sl, [r4, #132]	@ 0x84
    da28:	e5949088 	ldr	r9, [r4, #136]	@ 0x88
    da2c:	eb000115 	bl	de88 <memcpy>
    da30:	e3a03001 	mov	r3, #1
    da34:	e04d1005 	sub	r1, sp, r5
    da38:	e58470a8 	str	r7, [r4, #168]	@ 0xa8
    da3c:	e584a084 	str	sl, [r4, #132]	@ 0x84
    da40:	e5849088 	str	r9, [r4, #136]	@ 0x88
    da44:	e58450b0 	str	r5, [r4, #176]	@ 0xb0
    da48:	e58460b8 	str	r6, [r4, #184]	@ 0xb8
    da4c:	e58460c0 	str	r6, [r4, #192]	@ 0xc0
    da50:	e1a00004 	mov	r0, r4
    da54:	e5856098 	str	r6, [r5, #152]	@ 0x98
    da58:	e0841001 	add	r1, r4, r1
    da5c:	e5843098 	str	r3, [r4, #152]	@ 0x98
    da60:	ebfffe42 	bl	d370 <process_save>
    da64:	e5983000 	ldr	r3, [r8]
    da68:	e1530005 	cmp	r3, r5
    da6c:	11a07006 	movne	r7, r6
    da70:	0a000001 	beq	da7c <vfork+0x80>
    da74:	e1a00007 	mov	r0, r7
    da78:	e8bd87f0 	pop	{r4, r5, r6, r7, r8, r9, sl, pc}
    da7c:	ebffff79 	bl	d868 <schedule>
    da80:	e1a00007 	mov	r0, r7
    da84:	e8bd87f0 	pop	{r4, r5, r6, r7, r8, r9, sl, pc}
    da88:	e59f000c 	ldr	r0, [pc, #12]	@ da9c <vfork+0xa0>
    da8c:	eb00027d 	bl	e488 <printk>
    da90:	e3e07000 	mvn	r7, #0
    da94:	eafffff6 	b	da74 <vfork+0x78>
    da98:	00c44008 	sbceq	r4, r4, r8
    da9c:	00010220 	andeq	r0, r1, r0, lsr #4

0000daa0 <waitpid_done>:
    daa0:	e92d4010 	push	{r4, lr}
    daa4:	e59f0008 	ldr	r0, [pc, #8]	@ dab4 <waitpid_done+0x14>
    daa8:	eb00004c 	bl	dbe0 <wait_queue_wake>
    daac:	e3a00000 	mov	r0, #0
    dab0:	e8bd8010 	pop	{r4, pc}
    dab4:	00c65004 	sbceq	r5, r6, r4

0000dab8 <waitpid>:
    dab8:	e3700001 	cmn	r0, #1
    dabc:	e92d41f0 	push	{r4, r5, r6, r7, r8, lr}
    dac0:	e1a05000 	mov	r5, r0
    dac4:	e1a08001 	mov	r8, r1
    dac8:	e1a06002 	mov	r6, r2
    dacc:	0a000022 	beq	db5c <waitpid+0xa4>
    dad0:	e3500000 	cmp	r0, #0
    dad4:	ba000026 	blt	db74 <waitpid+0xbc>
    dad8:	ebfffd8c 	bl	d110 <process_lookup>
    dadc:	e1a04000 	mov	r4, r0
    dae0:	e3560001 	cmp	r6, #1
    dae4:	e5943098 	ldr	r3, [r4, #152]	@ 0x98
    dae8:	0a000010 	beq	db30 <waitpid+0x78>
    daec:	e3530002 	cmp	r3, #2
    daf0:	0a000007 	beq	db14 <waitpid+0x5c>
    daf4:	e59f708c 	ldr	r7, [pc, #140]	@ db88 <waitpid+0xd0>
    daf8:	e59f608c 	ldr	r6, [pc, #140]	@ db8c <waitpid+0xd4>
    dafc:	e1a00006 	mov	r0, r6
    db00:	e5971000 	ldr	r1, [r7]
    db04:	eb000022 	bl	db94 <wait_queue_add>
    db08:	e5943098 	ldr	r3, [r4, #152]	@ 0x98
    db0c:	e3530002 	cmp	r3, #2
    db10:	1afffff9 	bne	dafc <waitpid+0x44>
    db14:	e3580000 	cmp	r8, #0
    db18:	159430ac 	ldrne	r3, [r4, #172]	@ 0xac
    db1c:	15883000 	strne	r3, [r8]
    db20:	e1a00004 	mov	r0, r4
    db24:	ebfffde1 	bl	d2b0 <process_destroy>
    db28:	e1a00005 	mov	r0, r5
    db2c:	e8bd81f0 	pop	{r4, r5, r6, r7, r8, pc}
    db30:	e3530002 	cmp	r3, #2
    db34:	13a05000 	movne	r5, #0
    db38:	1afffffa 	bne	db28 <waitpid+0x70>
    db3c:	e3580000 	cmp	r8, #0
    db40:	159430ac 	ldrne	r3, [r4, #172]	@ 0xac
    db44:	e1a00004 	mov	r0, r4
    db48:	15883000 	strne	r3, [r8]
    db4c:	e59450a8 	ldr	r5, [r4, #168]	@ 0xa8
    db50:	ebfffdd6 	bl	d2b0 <process_destroy>
    db54:	e1a00005 	mov	r0, r5
    db58:	e8bd81f0 	pop	{r4, r5, r6, r7, r8, pc}
    db5c:	e1a00003 	mov	r0, r3
    db60:	ebfffd77 	bl	d144 <process_lookup_child>
    db64:	e2504000 	subs	r4, r0, #0
    db68:	1affffdc 	bne	dae0 <waitpid+0x28>
    db6c:	e3e05009 	mvn	r5, #9
    db70:	eaffffec 	b	db28 <waitpid+0x70>
    db74:	e1a01000 	mov	r1, r0
    db78:	e59f0010 	ldr	r0, [pc, #16]	@ db90 <waitpid+0xd8>
    db7c:	eb000241 	bl	e488 <printk>
    db80:	e3e05012 	mvn	r5, #18
    db84:	eaffffe7 	b	db28 <waitpid+0x70>
    db88:	00c44008 	sbceq	r4, r4, r8
    db8c:	00c65004 	sbceq	r5, r6, r4
    db90:	00010238 	andeq	r0, r1, r8, lsr r2

0000db94 <wait_queue_add>:
    db94:	e5903000 	ldr	r3, [r0]
    db98:	e92d4010 	push	{r4, lr}
    db9c:	e3530000 	cmp	r3, #0
    dba0:	05801000 	streq	r1, [r0]
    dba4:	1a000004 	bne	dbbc <wait_queue_add+0x28>
    dba8:	ea000005 	b	dbc4 <wait_queue_add+0x30>
    dbac:	e593208c 	ldr	r2, [r3, #140]	@ 0x8c
    dbb0:	e3520000 	cmp	r2, #0
    dbb4:	0a000007 	beq	dbd8 <wait_queue_add+0x44>
    dbb8:	e1a03002 	mov	r3, r2
    dbbc:	e1530001 	cmp	r3, r1
    dbc0:	1afffff9 	bne	dbac <wait_queue_add+0x18>
    dbc4:	e3a04000 	mov	r4, #0
    dbc8:	e5814098 	str	r4, [r1, #152]	@ 0x98
    dbcc:	ebffff25 	bl	d868 <schedule>
    dbd0:	e1a00004 	mov	r0, r4
    dbd4:	e8bd8010 	pop	{r4, pc}
    dbd8:	e583108c 	str	r1, [r3, #140]	@ 0x8c
    dbdc:	eafffff8 	b	dbc4 <wait_queue_add+0x30>

0000dbe0 <wait_queue_wake>:
    dbe0:	e5903000 	ldr	r3, [r0]
    dbe4:	e52de004 	push	{lr}		@ (str lr, [sp, #-4]!)
    dbe8:	e3530000 	cmp	r3, #0
    dbec:	e1a0e000 	mov	lr, r0
    dbf0:	0a000007 	beq	dc14 <wait_queue_wake+0x34>
    dbf4:	e3a0c001 	mov	ip, #1
    dbf8:	e3a01000 	mov	r1, #0
    dbfc:	e1a02003 	mov	r2, r3
    dc00:	e583c098 	str	ip, [r3, #152]	@ 0x98
    dc04:	e593308c 	ldr	r3, [r3, #140]	@ 0x8c
    dc08:	e582108c 	str	r1, [r2, #140]	@ 0x8c
    dc0c:	e3530000 	cmp	r3, #0
    dc10:	1afffff9 	bne	dbfc <wait_queue_wake+0x1c>
    dc14:	e3a00000 	mov	r0, #0
    dc18:	e58e0000 	str	r0, [lr]
    dc1c:	e49df004 	pop	{pc}		@ (ldr pc, [sp], #4)

0000dc20 <dump_saved_user_state>:
    dc20:	e92d41f0 	push	{r4, r5, r6, r7, r8, lr}
    dc24:	e1a05000 	mov	r5, r0
    dc28:	e3000268 	movw	r0, #616	@ 0x268
    dc2c:	e28520d8 	add	r2, r5, #216	@ 0xd8
    dc30:	e59510a8 	ldr	r1, [r5, #168]	@ 0xa8
    dc34:	e3007294 	movw	r7, #660	@ 0x294
    dc38:	e3400001 	movt	r0, #1
    dc3c:	e30062a0 	movw	r6, #672	@ 0x2a0
    dc40:	e3407001 	movt	r7, #1
    dc44:	eb00020f 	bl	e488 <printk>
    dc48:	e3406001 	movt	r6, #1
    dc4c:	e3000280 	movw	r0, #640	@ 0x280
    dc50:	e5952040 	ldr	r2, [r5, #64]	@ 0x40
    dc54:	e30f8088 	movw	r8, #61576	@ 0xf088
    dc58:	e595103c 	ldr	r1, [r5, #60]	@ 0x3c
    dc5c:	e3a04000 	mov	r4, #0
    dc60:	e3400001 	movt	r0, #1
    dc64:	e2455004 	sub	r5, r5, #4
    dc68:	e3408000 	movt	r8, #0
    dc6c:	eb000205 	bl	e488 <printk>
    dc70:	e5b52004 	ldr	r2, [r5, #4]!
    dc74:	e1a01004 	mov	r1, r4
    dc78:	e1a00007 	mov	r0, r7
    dc7c:	eb000201 	bl	e488 <printk>
    dc80:	e3540007 	cmp	r4, #7
    dc84:	e2841008 	add	r1, r4, #8
    dc88:	e1a00006 	mov	r0, r6
    dc8c:	0a000005 	beq	dca8 <dump_saved_user_state+0x88>
    dc90:	e5952020 	ldr	r2, [r5, #32]
    dc94:	e2844001 	add	r4, r4, #1
    dc98:	eb0001fa 	bl	e488 <printk>
    dc9c:	e1a00008 	mov	r0, r8
    dca0:	eb0001f8 	bl	e488 <printk>
    dca4:	eafffff1 	b	dc70 <dump_saved_user_state+0x50>
    dca8:	e30f0088 	movw	r0, #61576	@ 0xf088
    dcac:	e8bd41f0 	pop	{r4, r5, r6, r7, r8, lr}
    dcb0:	e3400000 	movt	r0, #0
    dcb4:	ea0001f3 	b	e488 <printk>

0000dcb8 <dump_saved_kernel_state>:
    dcb8:	e92d41f0 	push	{r4, r5, r6, r7, r8, lr}
    dcbc:	e1a05000 	mov	r5, r0
    dcc0:	e59010a8 	ldr	r1, [r0, #168]	@ 0xa8
    dcc4:	e3007294 	movw	r7, #660	@ 0x294
    dcc8:	e3407001 	movt	r7, #1
    dccc:	e30002a8 	movw	r0, #680	@ 0x2a8
    dcd0:	e3400001 	movt	r0, #1
    dcd4:	e30062a0 	movw	r6, #672	@ 0x2a0
    dcd8:	e3406001 	movt	r6, #1
    dcdc:	e30f8088 	movw	r8, #61576	@ 0xf088
    dce0:	e3408000 	movt	r8, #0
    dce4:	e28520d8 	add	r2, r5, #216	@ 0xd8
    dce8:	e3a04000 	mov	r4, #0
    dcec:	e2855040 	add	r5, r5, #64	@ 0x40
    dcf0:	eb0001e4 	bl	e488 <printk>
    dcf4:	e5b52004 	ldr	r2, [r5, #4]!
    dcf8:	e1a01004 	mov	r1, r4
    dcfc:	e1a00007 	mov	r0, r7
    dd00:	eb0001e0 	bl	e488 <printk>
    dd04:	e3540007 	cmp	r4, #7
    dd08:	e2841008 	add	r1, r4, #8
    dd0c:	e1a00006 	mov	r0, r6
    dd10:	0a000005 	beq	dd2c <dump_saved_kernel_state+0x74>
    dd14:	e5952020 	ldr	r2, [r5, #32]
    dd18:	e2844001 	add	r4, r4, #1
    dd1c:	eb0001d9 	bl	e488 <printk>
    dd20:	e1a00008 	mov	r0, r8
    dd24:	eb0001d7 	bl	e488 <printk>
    dd28:	eafffff1 	b	dcf4 <dump_saved_kernel_state+0x3c>
    dd2c:	e30f0088 	movw	r0, #61576	@ 0xf088
    dd30:	e8bd41f0 	pop	{r4, r5, r6, r7, r8, lr}
    dd34:	e3400000 	movt	r0, #0
    dd38:	ea0001d2 	b	e488 <printk>

0000dd3c <dump_kernel_regs>:
    dd3c:	e30002bc 	movw	r0, #700	@ 0x2bc
    dd40:	e1a0100e 	mov	r1, lr
    dd44:	e92d4ff0 	push	{r4, r5, r6, r7, r8, r9, sl, fp, lr}
    dd48:	e24dd00c 	sub	sp, sp, #12
    dd4c:	e3400001 	movt	r0, #1
    dd50:	e1a0b00e 	mov	fp, lr
    dd54:	eb0001cb 	bl	e488 <printk>
    dd58:	e58d3000 	str	r3, [sp]
    dd5c:	e1a01000 	mov	r1, r0
    dd60:	e30002dc 	movw	r0, #732	@ 0x2dc
    dd64:	e1a03002 	mov	r3, r2
    dd68:	e3400001 	movt	r0, #1
    dd6c:	e1a0200b 	mov	r2, fp
    dd70:	eb0001c4 	bl	e488 <printk>
    dd74:	e58d7000 	str	r7, [sp]
    dd78:	e30002fc 	movw	r0, #764	@ 0x2fc
    dd7c:	e3400001 	movt	r0, #1
    dd80:	e1a01004 	mov	r1, r4
    dd84:	e1a02005 	mov	r2, r5
    dd88:	e1a03006 	mov	r3, r6
    dd8c:	eb0001bd 	bl	e488 <printk>
    dd90:	e58db000 	str	fp, [sp]
    dd94:	e300031c 	movw	r0, #796	@ 0x31c
    dd98:	e3400001 	movt	r0, #1
    dd9c:	e1a01008 	mov	r1, r8
    dda0:	e1a02009 	mov	r2, r9
    dda4:	e1a0300a 	mov	r3, sl
    dda8:	eb0001b6 	bl	e488 <printk>
    ddac:	e300033c 	movw	r0, #828	@ 0x33c
    ddb0:	e1a0100c 	mov	r1, ip
    ddb4:	e3400001 	movt	r0, #1
    ddb8:	e1a0300b 	mov	r3, fp
    ddbc:	e1a0200d 	mov	r2, sp
    ddc0:	e28dd00c 	add	sp, sp, #12
    ddc4:	e8bd4ff0 	pop	{r4, r5, r6, r7, r8, r9, sl, fp, lr}
    ddc8:	ea0001ae 	b	e488 <printk>

0000ddcc <dump_memory>:
    ddcc:	e92d47f0 	push	{r4, r5, r6, r7, r8, r9, sl, lr}
    ddd0:	e2516000 	subs	r6, r1, #0
    ddd4:	08bd87f0 	popeq	{r4, r5, r6, r7, r8, r9, sl, pc}
    ddd8:	e3009358 	movw	r9, #856	@ 0x358
    dddc:	e3008360 	movw	r8, #864	@ 0x360
    dde0:	e3409001 	movt	r9, #1
    dde4:	e1a07000 	mov	r7, r0
    dde8:	e3408001 	movt	r8, #1
    ddec:	e3a04000 	mov	r4, #0
    ddf0:	ea000004 	b	de08 <dump_memory+0x3c>
    ddf4:	e5d51000 	ldrb	r1, [r5]
    ddf8:	e1a00008 	mov	r0, r8
    ddfc:	eb0001a1 	bl	e488 <printk>
    de00:	e1560004 	cmp	r6, r4
    de04:	08bd87f0 	popeq	{r4, r5, r6, r7, r8, r9, sl, pc}
    de08:	e0845007 	add	r5, r4, r7
    de0c:	e314000f 	tst	r4, #15
    de10:	e2844001 	add	r4, r4, #1
    de14:	1afffff6 	bne	ddf4 <dump_memory+0x28>
    de18:	e1a01005 	mov	r1, r5
    de1c:	e1a00009 	mov	r0, r9
    de20:	eb000198 	bl	e488 <printk>
    de24:	eafffff2 	b	ddf4 <dump_memory+0x28>

0000de28 <time_since_boot>:
    de28:	e3053da0 	movw	r3, #23968	@ 0x5da0
    de2c:	e34030c3 	movt	r3, #195	@ 0xc3
    de30:	e5930000 	ldr	r0, [r3]
    de34:	e1a00320 	lsr	r0, r0, #6
    de38:	e12fff1e 	bx	lr

0000de3c <ticks_since_boot>:
    de3c:	e3053da0 	movw	r3, #23968	@ 0x5da0
    de40:	e34030c3 	movt	r3, #195	@ 0xc3
    de44:	e5930000 	ldr	r0, [r3]
    de48:	e12fff1e 	bx	lr

0000de4c <clock_gettime>:
    de4c:	e3053da0 	movw	r3, #23968	@ 0x5da0
    de50:	e3040240 	movw	r0, #16960	@ 0x4240
    de54:	e34030c3 	movt	r3, #195	@ 0xc3
    de58:	e3a0cffa 	mov	ip, #1000	@ 0x3e8
    de5c:	e340000f 	movt	r0, #15
    de60:	e5932000 	ldr	r2, [r3]
    de64:	e202303f 	and	r3, r2, #63	@ 0x3f
    de68:	e0030390 	mul	r3, r0, r3
    de6c:	e1a02322 	lsr	r2, r2, #6
    de70:	e3a00000 	mov	r0, #0
    de74:	e1a03323 	lsr	r3, r3, #6
    de78:	e003039c 	mul	r3, ip, r3
    de7c:	e5812000 	str	r2, [r1]
    de80:	e5813004 	str	r3, [r1, #4]
    de84:	e12fff1e 	bx	lr

0000de88 <memcpy>:
    de88:	e3520000 	cmp	r2, #0
    de8c:	012fff1e 	bxeq	lr
    de90:	e0802002 	add	r2, r0, r2
    de94:	e2411001 	sub	r1, r1, #1
    de98:	e1a03000 	mov	r3, r0
    de9c:	e5f1c001 	ldrb	ip, [r1, #1]!
    dea0:	e4c3c001 	strb	ip, [r3], #1
    dea4:	e1530002 	cmp	r3, r2
    dea8:	1afffffb 	bne	de9c <memcpy+0x14>
    deac:	e12fff1e 	bx	lr

0000deb0 <memcpy_4byte>:
    deb0:	e92d4010 	push	{r4, lr}
    deb4:	e1b04122 	lsrs	r4, r2, #2
    deb8:	e2022003 	and	r2, r2, #3
    debc:	0a000006 	beq	dedc <memcpy_4byte+0x2c>
    dec0:	e1a03001 	mov	r3, r1
    dec4:	e240c004 	sub	ip, r0, #4
    dec8:	e0814104 	add	r4, r1, r4, lsl #2
    decc:	e493e004 	ldr	lr, [r3], #4
    ded0:	e1530004 	cmp	r3, r4
    ded4:	e5ace004 	str	lr, [ip, #4]!
    ded8:	1afffffb 	bne	decc <memcpy_4byte+0x1c>
    dedc:	e3520000 	cmp	r2, #0
    dee0:	08bd8010 	popeq	{r4, pc}
    dee4:	e0812002 	add	r2, r1, r2
    dee8:	e2403001 	sub	r3, r0, #1
    deec:	e4d1c001 	ldrb	ip, [r1], #1
    def0:	e1510002 	cmp	r1, r2
    def4:	e5e3c001 	strb	ip, [r3, #1]!
    def8:	1afffffb 	bne	deec <memcpy_4byte+0x3c>
    defc:	e8bd8010 	pop	{r4, pc}

0000df00 <memset_byte>:
    df00:	e3520000 	cmp	r2, #0
    df04:	012fff1e 	bxeq	lr
    df08:	e2422001 	sub	r2, r2, #1
    df0c:	e6ef1071 	uxtb	r1, r1
    df10:	e0802002 	add	r2, r0, r2
    df14:	e2403001 	sub	r3, r0, #1
    df18:	e5e31001 	strb	r1, [r3, #1]!
    df1c:	e1530002 	cmp	r3, r2
    df20:	1afffffc 	bne	df18 <memset_byte+0x18>
    df24:	e12fff1e 	bx	lr

0000df28 <memset_4byte>:
    df28:	e92d4030 	push	{r4, r5, lr}
    df2c:	e3003101 	movw	r3, #257	@ 0x101
    df30:	e3403101 	movt	r3, #257	@ 0x101
    df34:	e210e003 	ands	lr, r0, #3
    df38:	e6ef4071 	uxtb	r4, r1
    df3c:	e0010493 	mul	r1, r3, r4
    df40:	1a000011 	bne	df8c <memset_4byte+0x64>
    df44:	e1b05122 	lsrs	r5, r2, #2
    df48:	08bd8030 	popeq	{r4, r5, pc}
    df4c:	e1a03000 	mov	r3, r0
    df50:	e2433004 	sub	r3, r3, #4
    df54:	e3a0c000 	mov	ip, #0
    df58:	e5a31004 	str	r1, [r3, #4]!
    df5c:	e28cc001 	add	ip, ip, #1
    df60:	e15c0005 	cmp	ip, r5
    df64:	3afffffb 	bcc	df58 <memset_4byte+0x30>
    df68:	e35e0000 	cmp	lr, #0
    df6c:	08bd8030 	popeq	{r4, r5, pc}
    df70:	e042300e 	sub	r3, r2, lr
    df74:	e0803003 	add	r3, r0, r3
    df78:	e0802002 	add	r2, r0, r2
    df7c:	e4c34001 	strb	r4, [r3], #1
    df80:	e1520003 	cmp	r2, r3
    df84:	1afffffc 	bne	df7c <memset_4byte+0x54>
    df88:	e8bd8030 	pop	{r4, r5, pc}
    df8c:	e26ec004 	rsb	ip, lr, #4
    df90:	e1a03000 	mov	r3, r0
    df94:	e080c00c 	add	ip, r0, ip
    df98:	e4c34001 	strb	r4, [r3], #1
    df9c:	e153000c 	cmp	r3, ip
    dfa0:	1afffffc 	bne	df98 <memset_4byte+0x70>
    dfa4:	e2425001 	sub	r5, r2, #1
    dfa8:	e1b05125 	lsrs	r5, r5, #2
    dfac:	1affffe7 	bne	df50 <memset_4byte+0x28>
    dfb0:	eaffffee 	b	df70 <memset_4byte+0x48>

0000dfb4 <memset>:
    dfb4:	e92d41f0 	push	{r4, r5, r6, r7, r8, lr}
    dfb8:	e2103003 	ands	r3, r0, #3
    dfbc:	e1a0c000 	mov	ip, r0
    dfc0:	0a000006 	beq	dfe0 <asm_memset_4bytealigned>
    dfc4:	e2522004 	subs	r2, r2, #4
    dfc8:	ba00001a 	blt	e038 <asm_memset_lessthan4>
    dfcc:	e3530002 	cmp	r3, #2
    dfd0:	b4cc1001 	strblt	r1, [ip], #1
    dfd4:	d4cc1001 	strble	r1, [ip], #1
    dfd8:	e4cc1001 	strb	r1, [ip], #1
    dfdc:	e0822003 	add	r2, r2, r3

0000dfe0 <asm_memset_4bytealigned>:
    dfe0:	e1811401 	orr	r1, r1, r1, lsl #8
    dfe4:	e1811801 	orr	r1, r1, r1, lsl #16
    dfe8:	e1a03001 	mov	r3, r1
    dfec:	e1a04001 	mov	r4, r1
    dff0:	e1a05001 	mov	r5, r1
    dff4:	e1a06001 	mov	r6, r1
    dff8:	e1a07001 	mov	r7, r1
    dffc:	e1a08001 	mov	r8, r1
    e000:	e1a0e001 	mov	lr, r1

0000e004 <asm_memset_loop>:
    e004:	e2522040 	subs	r2, r2, #64	@ 0x40
    e008:	a8ac41fa 	stmiage	ip!, {r1, r3, r4, r5, r6, r7, r8, lr}
    e00c:	a8ac41fa 	stmiage	ip!, {r1, r3, r4, r5, r6, r7, r8, lr}
    e010:	cafffffb 	bgt	e004 <asm_memset_loop>
    e014:	0a00000c 	beq	e04c <asm_memset_done>
    e018:	e3120020 	tst	r2, #32
    e01c:	18ac41fa 	stmiane	ip!, {r1, r3, r4, r5, r6, r7, r8, lr}
    e020:	e3120010 	tst	r2, #16
    e024:	18ac00f0 	stmiane	ip!, {r4, r5, r6, r7}
    e028:	e3120008 	tst	r2, #8
    e02c:	18ac000a 	stmiane	ip!, {r1, r3}
